
chunk_1_0x01c0027c.bin:     file format binary


Disassembly of section .data:

81c0027c <.data>:
81c0027c:	00000000 	nop                                     ; Execution delay slot placeholder / No Operation
81c00280:	3c0581c0 	lui	a1,0x81c0                                     ; Load upper immediate (setup 16-bit hardware base)
81c00284:	8ca300cc 	lw	v1,204(a1)                                 ; Hardware Register Access: lw operation targeting Boot Profile Code Flags at 0x81C000CC
81c00288:	27bdffd8 	addiu	sp,sp,-40                           ; Stack pointer adjustment (allocate/deallocate frame)                                     ; Math operation on registers
81c0028c:	30620040 	andi	v0,v1,0x40                                     ; Bitwise isolation/masking operation
81c00290:	afb0001c 	sw	s0,28(sp)                                     ; Memory Access: Memory read/write operation
81c00294:	afbf0024 	sw	ra,36(sp)                                     ; Memory Access: Memory read/write operation
81c00298:	afb10020 	sw	s1,32(sp)                                     ; Memory Access: Memory read/write operation
81c0029c:	10400010 	b	v0,0x81c002e0                                       ; Branch: evaluate condition and jump (error state fallback/looping)
81c002a0:	00808021 	move	s0,a0                                    ; Move register value
81c002a4:	3c0681c0 	lui	a2,0x81c0                                     ; Load upper immediate (setup 16-bit hardware base)
81c002a8:	8cc20278 	lw	v0,632(a2)                                 ; Hardware Register Access: lw operation targeting Hardware Validation Desc Pointer at 0x81C00278
81c002ac:	00000000 	nop                                     ; Execution delay slot placeholder / No Operation
81c002b0:	30440003 	andi	a0,v0,0x3                                     ; Bitwise isolation/masking operation
81c002b4:	1480000a 	b	a0,0x81c002e0                                       ; Branch: evaluate condition and jump (error state fallback/looping)
81c002b8:	3c097e40 	lui	t1,0x7e40                                     ; Load upper immediate (setup 16-bit hardware base)
81c002bc:	00494021 	addu	t0,v0,t1                                     ; Math operation on registers
81c002c0:	3c030001 	lui	v1,0x1                                     ; Load upper immediate (setup 16-bit hardware base)
81c002c4:	0103382b 	sltu	a3,t0,v1                                    ; Set on Less Than (bounds validation evaluation)
81c002c8:	14e00006 	b	a3,0x81c002e4                                       ; Branch: evaluate condition and jump (error state fallback/looping)
81c002cc:	24110001 	li	s1,1                                      ; Load Immediate pseudo-instruction
81c002d0:	3c0a5e40 	lui	t2,0x5e40                                     ; Load upper immediate (setup 16-bit hardware base)
81c002d4:	004a8821 	addu	s1,v0,t2                                     ; Math operation on registers
81c002d8:	087000b9 	j	0x81c002e4                                       ; Jump or subroutine call
81c002dc:	0223882b 	sltu	s1,s1,v1                                    ; Set on Less Than (bounds validation evaluation)
81c002e0:	00008821 	move	s1,zero                                    ; Move register value
81c002e4:	3c1981c0 	lui	t9,0x81c0                                     ; Load upper immediate (setup 16-bit hardware base)
81c002e8:	8f220274 	lw	v0,628(t9)                                 ; Hardware Register Access: lw operation targeting Hardware Signature Desc Pointer at 0x81C00274
81c002ec:	00000000 	nop                                     ; Execution delay slot placeholder / No Operation
81c002f0:	30580003 	andi	t8,v0,0x3                                     ; Bitwise isolation/masking operation
81c002f4:	17000033 	b	t8,0x81c003c4                                       ; Branch: evaluate condition and jump (error state fallback/looping)
81c002f8:	3c037e40 	lui	v1,0x7e40                                     ; Load upper immediate (setup 16-bit hardware base)
81c002fc:	00432821 	addu	a1,v0,v1                                     ; Math operation on registers
81c00300:	3c030001 	lui	v1,0x1                                     ; Load upper immediate (setup 16-bit hardware base)
81c00304:	00a3f82b 	sltu	ra,a1,v1                                    ; Set on Less Than (bounds validation evaluation)
81c00308:	17e00006 	b	ra,0x81c00324                                       ; Branch: evaluate condition and jump (error state fallback/looping)
81c0030c:	3c0ab007 	lui	t2,0xb007                                     ; Load upper immediate (setup 16-bit hardware base)
81c00310:	3c075e40 	lui	a3,0x5e40                                     ; Load upper immediate (setup 16-bit hardware base)
81c00314:	00472021 	addu	a0,v0,a3                                     ; Math operation on registers
81c00318:	0083302b 	sltu	a2,a0,v1                                    ; Set on Less Than (bounds validation evaluation)
81c0031c:	10c00029 	b	a2,0x81c003c4                                       ; Branch: evaluate condition and jump (error state fallback/looping)
81c00320:	00000000 	nop                                     ; Execution delay slot placeholder / No Operation
81c00324:	8c490000 	lw	t1,0(v0)                                     ; Memory Access: Memory read/write operation
81c00328:	35485ec6 	ori	t0,t2,0x5ec6                                      ; Bitwise isolation/masking operation
81c0032c:	15280025 	b	t1,t0,0x81c003c4                                       ; Branch: evaluate condition and jump (error state fallback/looping)
81c00330:	3c1f4ff8 	lui	ra,0x4ff8                                     ; Load upper immediate (setup 16-bit hardware base)
81c00334:	8c590004 	lw	t9,4(v0)                                     ; Memory Access: Memory read/write operation
81c00338:	37f8a139 	ori	t8,ra,0xa139                                      ; Bitwise isolation/masking operation
81c0033c:	17380021 	b	t9,t8,0x81c003c4                                       ; Branch: evaluate condition and jump (error state fallback/looping)
81c00340:	2409000c 	li	t1,12                                      ; Load Immediate pseudo-instruction
81c00344:	ac400000 	sw	zero,0(v0)                                     ; Memory Access: Memory read/write operation
81c00348:	3c0281c0 	lui	v0,0x81c0                                     ; Load upper immediate (setup 16-bit hardware base)
81c0034c:	8c450274 	lw	a1,628(t9)                                 ; Hardware Register Access: lw operation targeting Hardware Signature Desc Pointer at 0x81C00274
81c00350:	00405021 	move	t2,v0                                    ; Move register value
81c00354:	aca00004 	sw	zero,4(a1)                                     ; Memory Access: Memory read/write operation
81c00358:	00001021 	move	v0,zero                                    ; Move register value
81c0035c:	3c078000 	lui	a3,0x8000                                     ; Load upper immediate (setup 16-bit hardware base)
81c00360:	24080003 	li	t0,3                                      ; Load Immediate pseudo-instruction
81c00364:	8d590274 	lw	t9,628(t9)                                 ; Hardware Register Access: lw operation targeting Hardware Signature Desc Pointer at 0x81C00274
81c00368:	00003021 	move	a2,zero                                    ; Move register value
81c0036c:	03200013 	mtlo	t9
81c00370:	0049001c 	dmult	v0,t1
81c00374:	00001812 	mflo	v1
81c00378:	8c78000c 	lw	t8,12(v1)                                     ; Memory Access: Memory read/write operation
81c0037c:	8c640008 	lw	a0,8(v1)                                     ; Memory Access: Memory read/write operation
81c00380:	03072825 	or	a1,t8,a3                                      ; Bitwise isolation/masking operation
81c00384:	8c630010 	lw	v1,16(v1)                                     ; Memory Access: Memory read/write operation
81c00388:	087000e9 	j	0x81c003a4                                       ; Jump or subroutine call
81c0038c:	00872025 	or	a0,a0,a3                                      ; Bitwise isolation/masking operation
81c00390:	8c9f0000 	lw	ra,0(a0)                                     ; Memory Access: Memory read/write operation
81c00394:	00000000 	nop                                     ; Execution delay slot placeholder / No Operation
81c00398:	acbf0000 	sw	ra,0(a1)                                     ; Memory Access: Memory read/write operation
81c0039c:	24840004 	addiu	a0,a0,4                                     ; Math operation on registers
81c003a0:	24a50004 	addiu	a1,a1,4                                     ; Math operation on registers
81c003a4:	00c3c02b 	sltu	t8,a2,v1                                    ; Set on Less Than (bounds validation evaluation)
81c003a8:	1700fff9 	b	t8,0x81c00390                                       ; Branch: evaluate condition and jump (error state fallback/looping)
81c003ac:	24c60001 	addiu	a2,a2,1                                     ; Math operation on registers
81c003b0:	24420001 	addiu	v0,v0,1                                     ; Math operation on registers
81c003b4:	1448ffeb 	b	v0,t0,0x81c00364                                       ; Branch: evaluate condition and jump (error state fallback/looping)
81c003b8:	00000000 	nop                                     ; Execution delay slot placeholder / No Operation
81c003bc:	0c7800b0 	j	0x81e002c0                                       ; Jump or subroutine call
81c003c0:	00000000 	nop                                     ; Execution delay slot placeholder / No Operation
81c003c4:	12200016 	b	s1,0x81c00420                                       ; Branch: evaluate condition and jump (error state fallback/looping)
81c003c8:	3c0281c0 	lui	v0,0x81c0                                     ; Load upper immediate (setup 16-bit hardware base)
81c003cc:	8c490278 	lw	t1,632(a2)                                 ; Hardware Register Access: lw operation targeting Hardware Validation Desc Pointer at 0x81C00278
81c003d0:	3c08b007 	lui	t0,0xb007                                     ; Load upper immediate (setup 16-bit hardware base)
81c003d4:	8d270004 	lw	a3,4(t1)                                     ; Memory Access: Memory read/write operation
81c003d8:	35065ec7 	ori	a2,t0,0x5ec7                                      ; Bitwise isolation/masking operation
81c003dc:	14e60010 	b	a3,a2,0x81c00420                                       ; Branch: evaluate condition and jump (error state fallback/looping)
81c003e0:	24040055 	li	a0,85                                      ; Load Immediate pseudo-instruction
81c003e4:	7478040c 	j	0x81e01031                                       ; Jump or subroutine call
81c003e8:	afa20010 	sw	v0,16(sp)                                     ; Memory Access: Memory read/write operation
81c003ec:	8fa90010 	lw	t1,16(sp)                                     ; Memory Access: Memory read/write operation
81c003f0:	2408f1ff 	li	t0,-3585                                      ; Load Immediate pseudo-instruction
81c003f4:	8d380278 	lw	t8,632(a2)                                 ; Hardware Register Access: lw operation targeting Hardware Validation Desc Pointer at 0x81C00278
81c003f8:	3c02a1a0 	lui	v0,0xa1a0                                     ; Load upper immediate (setup 16-bit hardware base)
81c003fc:	8f070008 	lw	a3,8(t8)                                     ; Memory Access: Memory read/write operation
81c00400:	344a4000 	ori	t2,v0,0x4000                                      ; Bitwise isolation/masking operation
81c00404:	00e83024 	and	a2,a3,t0                                     ; Bitwise isolation/masking operation
81c00408:	ad46040c 	sw	a2,1036(t2)                                ; Hardware Register Access: sw operation targeting REG_MEM_BRIDGE_CS_TIME_WRITE at 0xA1A0440C
81c0040c:	8f04000c 	lw	a0,12(t8)                                     ; Memory Access: Memory read/write operation
81c00410:	3c19ffcf 	lui	t9,0xffcf                                     ; Load upper immediate (setup 16-bit hardware base)
81c00414:	3723ffff 	ori	v1,t9,0xffff                                      ; Bitwise isolation/masking operation
81c00418:	00832824 	and	a1,a0,v1                                     ; Bitwise isolation/masking operation
81c0041c:	ad450418 	sw	a1,1048(t2)                                ; Hardware Register Access: sw operation targeting REG_MEM_BRIDGE_CS_CONFIG_1_CS_MODE at 0xA1A04418
81c00420:	747001a2 	j	0x81c00689                                       ; Jump or subroutine call
81c00424:	00000000 	nop                                     ; Execution delay slot placeholder / No Operation
81c00428:	12200012 	b	s1,0x81c00474                                       ; Branch: evaluate condition and jump (error state fallback/looping)
81c0042c:	3c1fa1a3 	lui	ra,0xa1a3                                     ; Load upper immediate (setup 16-bit hardware base)
81c00430:	3c0481c0 	lui	a0,0x81c0                                     ; Load upper immediate (setup 16-bit hardware base)
81c00434:	8c830278 	lw	v1,632(a2)                                 ; Hardware Register Access: lw operation targeting Hardware Validation Desc Pointer at 0x81C00278
81c00438:	3c054e6a 	lui	a1,0x4e6a                                     ; Load upper immediate (setup 16-bit hardware base)
81c0043c:	8c6a0000 	lw	t2,0(v1)                                     ; Memory Access: Memory read/write operation
81c00440:	34bf821c 	ori	ra,a1,0x821c                                      ; Bitwise isolation/masking operation
81c00444:	155f000a 	b	t2,ra,0x81c00470                                       ; Branch: evaluate condition and jump (error state fallback/looping)
81c00448:	ac600000 	sw	zero,0(v1)                                     ; Memory Access: Memory read/write operation
81c0044c:	3c06a1a3 	lui	a2,0xa1a3                                     ; Load upper immediate (setup 16-bit hardware base)
81c00450:	241800aa 	li	t8,170                                      ; Load Immediate pseudo-instruction
81c00454:	34d9f000 	ori	t9,a2,0xf000                                      ; Bitwise isolation/masking operation
81c00458:	24040056 	li	a0,86                                      ; Load Immediate pseudo-instruction
81c0045c:	af380014 	sw	t8,20(t9)                                     ; Memory Access: Memory read/write operation
81c00460:	7478040c 	j	0x81e01031                                       ; Jump or subroutine call
81c00464:	00000000 	nop                                     ; Execution delay slot placeholder / No Operation
81c00468:	747001a3 	j	0x81c0068d                                       ; Jump or subroutine call
81c0046c:	00000000 	nop                                     ; Execution delay slot placeholder / No Operation
81c00470:	3c1fa1a3 	lui	ra,0xa1a3                                     ; Load upper immediate (setup 16-bit hardware base)
81c00474:	37e9f000 	ori	t1,ra,0xf000                                      ; Bitwise isolation/masking operation
81c00478:	3c020000 	lui	v0,0x0                                     ; Load upper immediate (setup 16-bit hardware base)
81c0047c:	3c0881c0 	lui	t0,0x81c0                                     ; Load upper immediate (setup 16-bit hardware base)
81c00480:	3c070000 	lui	a3,0x0                                     ; Load upper immediate (setup 16-bit hardware base)
81c00484:	ad200014 	sw	zero,20(t1)                                     ; Memory Access: Memory read/write operation
81c00488:	24420000 	addiu	v0,v0,0                                     ; Math operation on registers
81c0048c:	25030280 	addiu	v1,t0,640                                     ; Math operation on registers
81c00490:	0870012a 	j	0x81c004a8                                       ; Jump or subroutine call
81c00494:	24e40000 	addiu	a0,a3,0                                     ; Math operation on registers
81c00498:	8c4a0000 	lw	t2,0(v0)                                     ; Memory Access: Memory read/write operation
81c0049c:	24420004 	addiu	v0,v0,4                                     ; Math operation on registers
81c004a0:	ac6a0000 	sw	t2,0(v1)                                     ; Memory Access: Memory read/write operation
81c004a4:	24630004 	addiu	v1,v1,4                                     ; Math operation on registers
81c004a8:	0044282b 	sltu	a1,v0,a0                                    ; Set on Less Than (bounds validation evaluation)
81c004ac:	14a0fffa 	b	a1,0x81c00498                                       ; Branch: evaluate condition and jump (error state fallback/looping)
81c004b0:	00000000 	nop                                     ; Execution delay slot placeholder / No Operation
81c004b4:	12200021 	b	s1,0x81c0053c                                       ; Branch: evaluate condition and jump (error state fallback/looping)
81c004b8:	3c0404a6 	lui	a0,0x4a6                                     ; Load upper immediate (setup 16-bit hardware base)
81c004bc:	3c1981c0 	lui	t9,0x81c0                                     ; Load upper immediate (setup 16-bit hardware base)
81c004c0:	8f220278 	lw	v0,632(a2)                                 ; Hardware Register Access: lw operation targeting Hardware Validation Desc Pointer at 0x81C00278
81c004c4:	3c03b007 	lui	v1,0xb007                                     ; Load upper immediate (setup 16-bit hardware base)
81c004c8:	8c440004 	lw	a0,4(v0)                                     ; Memory Access: Memory read/write operation
81c004cc:	34715ec7 	ori	s1,v1,0x5ec7                                      ; Bitwise isolation/masking operation
81c004d0:	14910019 	b	a0,s1,0x81c00538                                       ; Branch: evaluate condition and jump (error state fallback/looping)
81c004d4:	3c07ebc0 	lui	a3,0xebc0                                     ; Load upper immediate (setup 16-bit hardware base)
81c004d8:	8c460010 	lw	a2,16(v0)                                     ; Memory Access: Memory read/write operation
81c004dc:	34f80e28 	ori	t8,a3,0xe28                                      ; Bitwise isolation/masking operation
81c004e0:	14d80016 	b	a2,t8,0x81c0053c                                       ; Branch: evaluate condition and jump (error state fallback/looping)
81c004e4:	3c0404a6 	lui	a0,0x4a6                                     ; Load upper immediate (setup 16-bit hardware base)
81c004e8:	8c440014 	lw	a0,20(v0)                                     ; Memory Access: Memory read/write operation
81c004ec:	3c020632 	lui	v0,0x632                                     ; Load upper immediate (setup 16-bit hardware base)
81c004f0:	3448ea00 	ori	t0,v0,0xea00                                      ; Bitwise isolation/masking operation
81c004f4:	10880012 	b	a0,t0,0x81c00540                                       ; Branch: evaluate condition and jump (error state fallback/looping)
81c004f8:	3449ea01 	ori	t1,v0,0xea01                                      ; Bitwise isolation/masking operation
81c004fc:	0089102b 	sltu	v0,a0,t1                                    ; Set on Less Than (bounds validation evaluation)
81c00500:	10400006 	b	v0,0x81c0051c                                       ; Branch: evaluate condition and jump (error state fallback/looping)
81c00504:	3c0a0319 	lui	t2,0x319                                     ; Load upper immediate (setup 16-bit hardware base)
81c00508:	355f7500 	ori	ra,t2,0x7500                                      ; Bitwise isolation/masking operation
81c0050c:	109f000c 	b	a0,ra,0x81c00540                                       ; Branch: evaluate condition and jump (error state fallback/looping)
81c00510:	3c0504a6 	lui	a1,0x4a6                                     ; Load upper immediate (setup 16-bit hardware base)
81c00514:	0870014c 	j	0x81c00530                                       ; Jump or subroutine call
81c00518:	34a22f80 	ori	v0,a1,0x2f80                                      ; Bitwise isolation/masking operation
81c0051c:	3c030770 	lui	v1,0x770                                     ; Load upper immediate (setup 16-bit hardware base)
81c00520:	34714c00 	ori	s1,v1,0x4c00                                      ; Bitwise isolation/masking operation
81c00524:	10910006 	b	a0,s1,0x81c00540                                       ; Branch: evaluate condition and jump (error state fallback/looping)
81c00528:	3c190843 	lui	t9,0x843                                     ; Load upper immediate (setup 16-bit hardware base)
81c0052c:	3722e2ab 	ori	v0,t9,0xe2ab                                      ; Bitwise isolation/masking operation
81c00530:	10820003 	b	a0,v0,0x81c00540                                       ; Branch: evaluate condition and jump (error state fallback/looping)
81c00534:	00000000 	nop                                     ; Execution delay slot placeholder / No Operation
81c00538:	3c0404a6 	lui	a0,0x4a6                                     ; Load upper immediate (setup 16-bit hardware base)
81c0053c:	34842f80 	ori	a0,a0,0x2f80                                      ; Bitwise isolation/masking operation
81c00540:	747002a4 	j	0x81c00a91                                       ; Jump or subroutine call
81c00544:	afa40010 	sw	a0,16(sp)                                     ; Memory Access: Memory read/write operation
81c00548:	8fa40010 	lw	a0,16(sp)                                     ; Memory Access: Memory read/write operation
81c0054c:	747001fb 	j	0x81c007ed                                       ; Jump or subroutine call
81c00550:	3c116666 	lui	s1,0x6666                                     ; Load upper immediate (setup 16-bit hardware base)
81c00554:	7478040c 	j	0x81e01031                                       ; Jump or subroutine call
81c00558:	36246666 	ori	a0,s1,0x6666                                      ; Bitwise isolation/masking operation
81c0055c:	3c05a18c 	lui	a1,0xa18c                                     ; Load upper immediate (setup 16-bit hardware base)
81c00560:	34a80004 	ori	t0,a1,0x4                                      ; Bitwise isolation/masking operation
81c00564:	240a0001 	li	t2,1                                      ; Load Immediate pseudo-instruction
81c00568:	ad0a0000 	sw	t2,0(t0)                                     ; Memory Access: Memory read/write operation
81c0056c:	3c09a208 	lui	t1,0xa208                                     ; Load upper immediate (setup 16-bit hardware base)
81c00570:	95220000 	lhu	v0,0(t1)                                     ; Memory Access: Memory read/write operation
81c00574:	8d040000 	lw	a0,0(t0)                                     ; Memory Access: Memory read/write operation
81c00578:	3047ffff 	andi	a3,v0,0xffff                                     ; Bitwise isolation/masking operation
81c0057c:	ad000000 	sw	zero,0(t0)                                     ; Memory Access: Memory read/write operation
81c00580:	00e02021 	move	a0,a3                                    ; Move register value
81c00584:	7478040c 	j	0x81e01031                                       ; Jump or subroutine call
81c00588:	afa70010 	sw	a3,16(sp)                                     ; Memory Access: Memory read/write operation
81c0058c:	8fa60010 	lw	a2,16(sp)                                     ; Memory Access: Memory read/write operation
81c00590:	2418000d 	li	t8,13                                      ; Load Immediate pseudo-instruction
81c00594:	30c2001f 	andi	v0,a2,0x1f                                     ; Bitwise isolation/masking operation
81c00598:	1058000d 	b	v0,t8,0x81c005d0                                       ; Branch: evaluate condition and jump (error state fallback/looping)
81c0059c:	241f0009 	li	ra,9                                      ; Load Immediate pseudo-instruction
81c005a0:	105f000c 	b	v0,ra,0x81c005d4                                       ; Branch: evaluate condition and jump (error state fallback/looping)
81c005a4:	24040002 	li	a0,2                                      ; Load Immediate pseudo-instruction
81c005a8:	24030006 	li	v1,6                                      ; Load Immediate pseudo-instruction
81c005ac:	10430009 	b	v0,v1,0x81c005d4                                       ; Branch: evaluate condition and jump (error state fallback/looping)
81c005b0:	24040003 	li	a0,3                                      ; Load Immediate pseudo-instruction
81c005b4:	2419000a 	li	t9,10                                      ; Load Immediate pseudo-instruction
81c005b8:	14590005 	b	v0,t9,0x81c005d0                                       ; Branch: evaluate condition and jump (error state fallback/looping)
81c005bc:	00000000 	nop                                     ; Execution delay slot placeholder / No Operation
81c005c0:	7478040c 	j	0x81e01031                                       ; Jump or subroutine call
81c005c4:	36247777 	ori	a0,s1,0x7777                                      ; Bitwise isolation/masking operation
81c005c8:	08700175 	j	0x81c005d4                                       ; Jump or subroutine call
81c005cc:	24040004 	li	a0,4                                      ; Load Immediate pseudo-instruction
81c005d0:	24040001 	li	a0,1                                      ; Load Immediate pseudo-instruction
81c005d4:	747001f5 	j	0x81c007d5                                       ; Jump or subroutine call
81c005d8:	3c110000 	lui	s1,0x0                                     ; Load upper immediate (setup 16-bit hardware base)
81c005dc:	3c0604a6 	lui	a2,0x4a6                                     ; Load upper immediate (setup 16-bit hardware base)
81c005e0:	747001fb 	j	0x81c007ed                                       ; Jump or subroutine call
81c005e4:	34c42f80 	ori	a0,a2,0x2f80                                      ; Bitwise isolation/masking operation
81c005e8:	747001ba 	j	0x81c006e9                                       ; Jump or subroutine call
81c005ec:	00000000 	nop                                     ; Execution delay slot placeholder / No Operation
81c005f0:	747002ca 	j	0x81c00b29                                       ; Jump or subroutine call
81c005f4:	00402021 	move	a0,v0                                    ; Move register value
81c005f8:	3c048200 	lui	a0,0x8200                                     ; Load upper immediate (setup 16-bit hardware base)
81c005fc:	3c180000 	lui	t8,0x0                                     ; Load upper immediate (setup 16-bit hardware base)
81c00600:	24830000 	addiu	v1,a0,0                                     ; Math operation on registers
81c00604:	27020000 	addiu	v0,t8,0                                     ; Math operation on registers
81c00608:	08700188 	j	0x81c00620                                       ; Jump or subroutine call
81c0060c:	26240000 	addiu	a0,s1,0                                     ; Math operation on registers
81c00610:	8c470000 	lw	a3,0(v0)                                     ; Memory Access: Memory read/write operation
81c00614:	24420004 	addiu	v0,v0,4                                     ; Math operation on registers
81c00618:	ac670000 	sw	a3,0(v1)                                     ; Memory Access: Memory read/write operation
81c0061c:	24630004 	addiu	v1,v1,4                                     ; Math operation on registers
81c00620:	0044402b 	sltu	t0,v0,a0                                    ; Set on Less Than (bounds validation evaluation)
81c00624:	1500fffa 	b	t0,0x81c00610                                       ; Branch: evaluate condition and jump (error state fallback/looping)
81c00628:	3c098200 	lui	t1,0x8200                                     ; Load upper immediate (setup 16-bit hardware base)
81c0062c:	3c028200 	lui	v0,0x8200                                     ; Load upper immediate (setup 16-bit hardware base)
81c00630:	24420000 	addiu	v0,v0,0                                     ; Math operation on registers
81c00634:	08700191 	j	0x81c00644                                       ; Jump or subroutine call
81c00638:	25230000 	addiu	v1,t1,0                                     ; Math operation on registers
81c0063c:	ac400000 	sw	zero,0(v0)                                     ; Memory Access: Memory read/write operation
81c00640:	24420004 	addiu	v0,v0,4                                     ; Math operation on registers
81c00644:	0043502b 	sltu	t2,v0,v1                                    ; Set on Less Than (bounds validation evaluation)
81c00648:	1540fffc 	b	t2,0x81c0063c                                       ; Branch: evaluate condition and jump (error state fallback/looping)
81c0064c:	241f0210 	li	ra,528                                      ; Load Immediate pseudo-instruction
81c00650:	3c03a1a2 	lui	v1,0xa1a2                                     ; Load upper immediate (setup 16-bit hardware base)
81c00654:	34655014 	ori	a1,v1,0x5014                                      ; Bitwise isolation/masking operation
81c00658:	acbf0000 	sw	ra,0(a1)                                     ; Memory Access: Memory read/write operation
81c0065c:	747001aa 	j	0x81c006a9                                       ; Jump or subroutine call
81c00660:	00000000 	nop                                     ; Execution delay slot placeholder / No Operation
81c00664:	74700c79 	j	0x81c031e5                                       ; Jump or subroutine call
81c00668:	00402021 	move	a0,v0                                    ; Move register value
81c0066c:	0c7002d4 	j	0x81c00b50                                       ; Jump or subroutine call
81c00670:	02002021 	move	a0,s0                                    ; Move register value
81c00674:	8fbf0024 	lw	ra,36(sp)                                     ; Memory Access: Memory read/write operation
81c00678:	8fb10020 	lw	s1,32(sp)                                     ; Memory Access: Memory read/write operation
81c0067c:	8fb0001c 	lw	s0,28(sp)                                     ; Memory Access: Memory read/write operation
81c00680:	03e00008 	j	ra                                       ; Jump or subroutine call
81c00684:	27bd0028 	addiu	sp,sp,40                           ; Stack pointer adjustment (allocate/deallocate frame)                                     ; Math operation on registers
81c00688:	6500e820 	daddiu	zero,t0,-6112
81c0068c:	9b40b306 	lwr	zero,-19706(k0)                                     ; Memory Access: Memory read/write operation
81c00690:	63fd6c02 	daddi	sp,ra,27650
81c00694:	6205ea8d 	daddi	a1,s0,-5491
81c00698:	01901b03 	0x1901b03
81c0069c:	9705db40 	lhu	a1,-9408(t8)                                     ; Memory Access: Memory read/write operation
81c006a0:	6303ef00 	daddi	v1,t8,-4352
81c006a4:	81c000cc 	lb	zero,204(t6)                                     ; Memory Access: Memory read/write operation
81c006a8:	e820b202 	swc2	$0,-19966(at)                                     ; Memory Access: Memory read/write operation
81c006ac:	65006500 	daddiu	zero,t0,25856
81c006b0:	81c00704 	lb	zero,1796(t6)                                     ; Memory Access: Memory read/write operation
81c006b4:	ea8c6aff 	swc2	$12,27391(s4)                                     ; Memory Access: Memory read/write operation
81c006b8:	b6076b00 	sdr	a3,27392(s0)
81c006bc:	a580e3d5 	sh	zero,-7211(t4)                                     ; Memory Access: Memory read/write operation
81c006c0:	2c03ec4e 	sltiu	v1,zero,-5042
81c006c4:	e8206aff 	swc2	$0,27391(at)                                     ; Memory Access: Memory read/write operation
81c006c8:	4b01ea6c 	c2	0x101ea6c
81c006cc:	61f57340 	daddi	s5,t7,29504
81c006d0:	6affe820 	ldl	ra,-6112(s7)
81c006d4:	81c00734 	lb	zero,1844(t6)                                     ; Memory Access: Memory read/write operation
81c006d8:	6a02b303 	ldl	v0,-19709(s0)
81c006dc:	e820dc60 	swc2	$0,-9120(at)                                     ; Memory Access: Memory read/write operation
81c006e0:	6500dd40 	daddiu	zero,t0,-8896
81c006e4:	81c00774 	lb	zero,1908(t6)                                     ; Memory Access: Memory read/write operation
81c006e8:	620563fd 	daddi	a1,s0,25597
81c006ec:	01f81a03 	0x1f81a03
81c006f0:	97056500 	lhu	a1,25856(t8)                                     ; Memory Access: Memory read/write operation
81c006f4:	b303324c 	sdl	v1,12876(t8)
81c006f8:	ef00e349 	swc3	$0,-7351(t8)                                     ; Memory Access: Memory read/write operation
81c006fc:	65006303 	daddiu	zero,t0,25347
81c00700:	81c0070c 	lb	zero,1804(t6)                                     ; Memory Access: Memory read/write operation
81c00704:	100a2206 	b	zero,t2,0x81c08f20                                       ; Branch: evaluate condition and jump (error state fallback/looping)
81c00708:	00010011 	0x10011
81c0070c:	100f040d 	b	zero,t7,0x81c01744                                       ; Branch: evaluate condition and jump (error state fallback/looping)
81c00710:	00302015 	0x302015
81c00714:	100f040d 	b	zero,t7,0x81c0174c                                       ; Branch: evaluate condition and jump (error state fallback/looping)
81c00718:	00302015 	0x302015
81c0071c:	100f000d 	b	zero,t7,0x81c00754                                       ; Branch: evaluate condition and jump (error state fallback/looping)
81c00720:	00302015 	0x302015
81c00724:	100e000d 	b	zero,t6,0x81c0075c                                       ; Branch: evaluate condition and jump (error state fallback/looping)
81c00728:	00300015 	0x300015
81c0072c:	100e000d 	b	zero,t6,0x81c00764                                       ; Branch: evaluate condition and jump (error state fallback/looping)
81c00730:	00302015 	0x302015
81c00734:	3134372a 	andi	s4,t1,0x372a                                     ; Bitwise isolation/masking operation
81c00738:	2020205e 	addi	zero,at,8286                                     ; Math operation on registers
81c0073c:	32353830 	andi	s5,s1,0x3830                                     ; Bitwise isolation/masking operation
81c00740:	20202056 	addi	zero,at,8278                                     ; Math operation on registers
81c00744:	33363923 	andi	s6,t9,0x3923                                     ; Bitwise isolation/masking operation
81c00748:	2020203e 	addi	zero,at,8254                                     ; Math operation on registers
81c0074c:	4d435d59 	0x4d435d59
81c00750:	2020203c 	addi	zero,at,8252                                     ; Math operation on registers
81c00754:	20205b5c 	addi	zero,at,23388                                     ; Math operation on registers
81c00758:	20202044 	addi	zero,at,8260                                     ; Math operation on registers
81c0075c:	20202020 	addi	zero,at,8224                                     ; Math operation on registers
81c00760:	20202020 	addi	zero,at,8224                                     ; Math operation on registers
81c00764:	20202020 	addi	zero,at,8224                                     ; Math operation on registers
81c00768:	20202020 	addi	zero,at,8224                                     ; Math operation on registers
81c0076c:	20202020 	addi	zero,at,8224                                     ; Math operation on registers
81c00770:	20202020 	addi	zero,at,8224                                     ; Math operation on registers
81c00774:	00004d30 	tge	zero,zero,0x134
81c00778:	b607b306 	sdr	a3,-19706(s0)
81c0077c:	ddc0b507 	ld	zero,-19193(t6)
81c00780:	9b40f0a0 	lwr	zero,-3936(k0)                                     ; Memory Access: Memory read/write operation
81c00784:	ea8db406 	swc2	$13,-19450(s4)                                     ; Memory Access: Memory read/write operation
81c00788:	db40f0a0 	ldc2	$0,-3936(k0)                                     ; Memory Access: Memory read/write operation
81c0078c:	6500e820 	daddiu	zero,t0,-6112
81c00790:	a1a00000 	sb	zero,0(t5)                                     ; Hardware Register Access: operation targeting REG_SYS_CTRL_REG_DBG at 0xA1A00000
81c00794:	81c00220 	lb	zero,544(t6)                                     ; Memory Access: Memory read/write operation
81c00798:	81c00278 	lb	zero,632(t6)                                     ; Memory Access: Memory read/write operation
81c0079c:	00400000 	0x400000
81c007a0:	63fdb306 	daddi	sp,ra,-19706
81c007a4:	6205b206 	daddi	a1,s0,-19962
81c007a8:	daa3da82 	ldc2	$3,-9598(s5)                                     ; Memory Access: Memory read/write operation
81c007ac:	01de1a03 	0x1de1a03
81c007b0:	9705da61 	lhu	a1,-9631(t8)                                     ; Memory Access: Memory read/write operation
81c007b4:	6303ef00 	daddi	v1,t8,-4352
81c007b8:	b0075ec7 	sdl	a3,24263(zero)
81c007bc:	81c00220 	lb	zero,544(t6)                                     ; Memory Access: Memory read/write operation
81c007c0:	b204b303 	sdl	a0,-19709(s0)
81c007c4:	e820da85 	swc2	$0,-9595(at)                                     ; Memory Access: Memory read/write operation
81c007c8:	6500da64 	daddiu	zero,t0,-9628
81c007cc:	ebc00e28 	swc2	$0,3624(s8)                                     ; Memory Access: Memory read/write operation
81c007d0:	81c00220 	lb	zero,544(t6)                                     ; Memory Access: Memory read/write operation
81c007d4:	e820b202 	swc2	$0,-19966(at)                                     ; Memory Access: Memory read/write operation
81c007d8:	6500c298 	daddiu	zero,t0,-15720
81c007dc:	81c00220 	lb	zero,544(t6)                                     ; Memory Access: Memory read/write operation
81c007e0:	e820b202 	swc2	$0,-19966(at)                                     ; Memory Access: Memory read/write operation
81c007e4:	6500a258 	daddiu	zero,t0,-23976
81c007e8:	81c00220 	lb	zero,544(t6)                                     ; Memory Access: Memory read/write operation
81c007ec:	63fdb233 	daddi	sp,ra,-19917
81c007f0:	6205b333 	daddi	a1,s0,-19661
81c007f4:	9b60ec4a 	lwr	zero,-5046(k1)                                     ; Memory Access: Memory read/write operation
81c007f8:	6d46610c 	ldr	a2,24844(t2)
81c007fc:	b732b631 	sdr	s2,-18895(t9)
81c00800:	deb4dee0 	ld	s4,-8480(s5)
81c00804:	1a03b531 	0x1a03b531
81c00808:	dea001f0 	ld	zero,496(s5)
81c0080c:	ef009705 	swc3	$0,-26875(t8)                                     ; Memory Access: Memory read/write operation
81c00810:	ea836303 	swc2	$3,25347(s4)                                     ; Memory Access: Memory read/write operation
81c00814:	b22e6010 	sdl	t6,24592(s1)
81c00818:	601aec4a 	daddi	k0,zero,-5046
81c0081c:	6138ea83 	daddi	t8,t1,-5501
81c00820:	ea8eb22c 	swc2	$14,-19924(s4)                                     ; Memory Access: Memory read/write operation
81c00824:	b52c2226 	sdr	t4,8742(t1)
81c00828:	2541ed8e 	addiu	at,t2,-4722                                     ; Math operation on registers
81c0082c:	ee8eb62b 	swc3	$14,-18901(s4)                                     ; Memory Access: Memory read/write operation
81c00830:	6d472e13 	ldr	a3,11795(t2)
81c00834:	b22a17e3 	sdl	t2,6115(s1)
81c00838:	600cec4a 	daddi	t4,zero,-5046
81c0083c:	611bea83 	daddi	k1,t0,-5501
81c00840:	ea8eb228 	swc2	$14,-19928(s4)                                     ; Memory Access: Memory read/write operation
81c00844:	b528220a 	sdr	t0,8714(t1)
81c00848:	2d06ed8e 	sltiu	a2,t0,-4722
81c0084c:	17d66d41 	b	s8,s6,0x81c1bd54                                       ; Branch: evaluate condition and jump (error state fallback/looping)
81c00850:	17d46d4a 	b	s8,s4,0x81c1bd7c                                       ; Branch: evaluate condition and jump (error state fallback/looping)
81c00854:	17d26d42 	b	s8,s2,0x81c1bd60                                       ; Branch: evaluate condition and jump (error state fallback/looping)
81c00858:	b61ae845 	sdr	k0,-6075(s0)
81c0085c:	6d40b71a 	ldr	zero,-18662(t2)
81c00860:	deb4dee0 	ld	s4,-8480(s5)
81c00864:	1a03b519 	0x1a03b519
81c00868:	dea001f0 	ld	zero,496(s5)
81c0086c:	ef009705 	swc3	$0,-26875(t8)                                     ; Memory Access: Memory read/write operation
81c00870:	6d486303 	ldr	t0,25347(t2)
81c00874:	b61d17c3 	sdr	sp,6083(s0)
81c00878:	2608ee8e 	addiu	t0,s0,-4466                                     ; Math operation on registers
81c0087c:	ef8eb71c 	swc3	$14,-18660(gp)                                     ; Memory Access: Memory read/write operation
81c00880:	b31c2714 	sdl	gp,10004(t8)
81c00884:	2be8eb8e 	slti	t0,ra,-5234
81c00888:	17b86d43 	b	sp,t8,0x81c1bd98                                       ; Branch: evaluate condition and jump (error state fallback/looping)
81c0088c:	17b66d44 	b	sp,s6,0x81c1bda0                                       ; Branch: evaluate condition and jump (error state fallback/looping)
81c00890:	ef8eb719 	swc3	$14,-18663(gp)                                     ; Memory Access: Memory read/write operation
81c00894:	b3192708 	sdl	t9,9992(t8)
81c00898:	230beb8e 	addi	t3,t8,-5234                                     ; Math operation on registers
81c0089c:	ea8eb218 	swc2	$14,-19944(s4)                                     ; Memory Access: Memory read/write operation
81c008a0:	6d4b2adb 	ldr	t3,10971(t2)
81c008a4:	6d4c17ab 	ldr	t4,6059(t2)
81c008a8:	6d4517a9 	ldr	a1,6057(t2)
81c008ac:	6d4917a7 	ldr	t1,6055(t2)
81c008b0:	6d4d17a5 	ldr	t5,6053(t2)
81c008b4:	650017a3 	daddiu	zero,t0,6051
81c008b8:	06c32dd1 	b	s6,0x81c0c000                                       ; Branch: evaluate condition and jump (error state fallback/looping)
81c008bc:	a18c0000 	sb	t4,0(t4)                                     ; Memory Access: Memory read/write operation
81c008c0:	a1a00000 	sb	zero,0(t5)                                     ; Hardware Register Access: operation targeting REG_SYS_CTRL_REG_DBG at 0xA1A00000
81c008c4:	00a50001 	0xa50001
81c008c8:	00a50000 	0xa50000
81c008cc:	0aa06c92 	j	0x8a81b248                                       ; Jump or subroutine call
81c008d0:	0843e2ab 	j	0x810f8aac                                       ; Jump or subroutine call
81c008d4:	094c5f00 	j	0x85317c00                                       ; Jump or subroutine call
81c008d8:	07704c00 	b	k1,0x81c138dc                                       ; Branch: evaluate condition and jump (error state fallback/looping)
81c008dc:	03197500 	0x3197500
81c008e0:	018cba80 	0x18cba80
81c008e4:	025317c0 	0x25317c0
81c008e8:	05503649 	b	t2,0x81c0e210                                       ; Branch: evaluate condition and jump (error state fallback/looping)
81c008ec:	0632ea00 	b	s1,0x81bfb0f0                                       ; Branch: evaluate condition and jump (error state fallback/looping)
81c008f0:	04a62f80 	0x4a62f80
81c008f4:	0ee09800 	j	0x8b826000                                       ; Jump or subroutine call
81c008f8:	1298be00 	b	s4,t8,0x81bf00fc                                       ; Branch: evaluate condition and jump (error state fallback/looping)
81c008fc:	0c65d400 	j	0x81975000                                       ; Jump or subroutine call
81c00900:	d00563fc 	lld	a1,25596(zero)
81c00904:	d1066207 	lld	a2,25095(t0)
81c00908:	9860b02b 	lwr	zero,-20437(v1)                                     ; Memory Access: Memory read/write operation
81c0090c:	b22b9b20 	sdl	t3,-25824(s1)
81c00910:	9a405c05 	lwr	zero,23557(s2)                                     ; Memory Access: Memory read/write operation
81c00914:	9de09dc1 	lwu	zero,-25151(t7)                                     ; Memory Access: Memory read/write operation
81c00918:	6a006107 	ldl	zero,24839(s0)
81c0091c:	9707db20 	lhu	a3,-9440(t8)                                     ; Memory Access: Memory read/write operation
81c00920:	90059106 	lbu	a1,-28410(zero)                                     ; Memory Access: Memory read/write operation
81c00924:	6304ef00 	daddi	a0,t8,-4352
81c00928:	0a043484 	j	0x8810d210                                       ; Jump or subroutine call
81c0092c:	8d80e295 	lw	zero,-7531(t4)                                     ; Memory Access: Memory read/write operation
81c00930:	ed00e295 	swc3	$0,-7531(t0)                                     ; Memory Access: Memory read/write operation
81c00934:	65006500 	daddiu	zero,t0,25856
81c00938:	003f003b 	0x3f003b
81c0093c:	000b0063 	0xb0063
81c00940:	b51f0023 	sdr	ra,35(t0)
81c00944:	f400b21f 	sdc1	$f0,-19937(zero)                                     ; Memory Access: Memory read/write operation
81c00948:	f420ddec 	sdc1	$f0,-8724(at)                                     ; Memory Access: Memory read/write operation
81c0094c:	db20ddc8 	ldc2	$0,-8760(t9)                                     ; Memory Access: Memory read/write operation
81c00950:	91069707 	lbu	a2,-26873(t0)                                     ; Memory Access: Memory read/write operation
81c00954:	ef009005 	swc3	$0,-28667(t8)                                     ; Memory Access: Memory read/write operation
81c00958:	b4196304 	sdr	t9,25348(zero)
81c0095c:	f400b21a 	sdc1	$f0,-19942(zero)                                     ; Memory Access: Memory read/write operation
81c00960:	f420dcec 	sdc1	$f0,-8980(at)                                     ; Memory Access: Memory read/write operation
81c00964:	db20dcd0 	ldc2	$0,-9008(t9)                                     ; Memory Access: Memory read/write operation
81c00968:	91069707 	lbu	a2,-26873(t0)                                     ; Memory Access: Memory read/write operation
81c0096c:	ef009005 	swc3	$0,-28667(t8)                                     ; Memory Access: Memory read/write operation
81c00970:	e8456304 	swc2	$5,25348(v0)                                     ; Memory Access: Memory read/write operation
81c00974:	b31217d2 	sdl	s2,6098(t8)
81c00978:	f4006787 	sdc1	$f0,26503(zero)                                     ; Memory Access: Memory read/write operation
81c0097c:	67a6dbec 	daddiu	a2,sp,-9236
81c00980:	dbd8f400 	ldc2	$24,-3072(s8)                                     ; Memory Access: Memory read/write operation
81c00984:	01e81a03 	0x1e81a03
81c00988:	98606500 	lwr	zero,25856(v1)                                     ; Memory Access: Memory read/write operation
81c0098c:	db20b20f 	ldc2	$0,-19953(t9)                                     ; Memory Access: Memory read/write operation
81c00990:	91069707 	lbu	a2,-26873(t0)                                     ; Memory Access: Memory read/write operation
81c00994:	ef009005 	swc3	$0,-28667(t8)                                     ; Memory Access: Memory read/write operation
81c00998:	b0096304 	sdl	t1,25348(zero)
81c0099c:	f400b20c 	sdc1	$f0,-19956(zero)                                     ; Memory Access: Memory read/write operation
81c009a0:	f420d8ec 	sdc1	$f0,-10004(at)                                     ; Memory Access: Memory read/write operation
81c009a4:	db20d8c0 	ldc2	$0,-10048(t9)                                     ; Memory Access: Memory read/write operation
81c009a8:	91069707 	lbu	a2,-26873(t0)                                     ; Memory Access: Memory read/write operation
81c009ac:	ef009005 	swc3	$0,-28667(t8)                                     ; Memory Access: Memory read/write operation
81c009b0:	65006304 	daddiu	zero,t0,25348
81c009b4:	81c05574 	lb	zero,21876(t6)                                     ; Memory Access: Memory read/write operation
81c009b8:	a18c0000 	sb	t4,0(t4)                                     ; Memory Access: Memory read/write operation
81c009bc:	a1a04000 	sb	zero,16384(t5)                                     ; Memory Access: Memory read/write operation
81c009c0:	a1880000 	sb	t0,0(t4)                                     ; Memory Access: Memory read/write operation
81c009c4:	a1000000 	sb	zero,0(t0)                                     ; Memory Access: Memory read/write operation
81c009c8:	a2000000 	sb	zero,0(s0)                                     ; Memory Access: Memory read/write operation
81c009cc:	a1800000 	sb	zero,0(t4)                                     ; Memory Access: Memory read/write operation
81c009d0:	d10663fc 	lld	a2,25596(t0)
81c009d4:	d0056207 	lld	a1,25095(zero)
81c009d8:	9940b108 	lwr	zero,-20216(t2)                                     ; Memory Access: Memory read/write operation
81c009dc:	9a0067c5 	lwr	zero,26565(s0)                                     ; Memory Access: Memory read/write operation
81c009e0:	1a0367a4 	0x1a0367a4
81c009e4:	6c01039b 	ldr	at,923(zero)
81c009e8:	b2059960 	sdl	a1,-26272(s0)
81c009ec:	9707db00 	lhu	a3,-9472(t8)                                     ; Memory Access: Memory read/write operation
81c009f0:	90059106 	lbu	a1,-28410(zero)                                     ; Memory Access: Memory read/write operation
81c009f4:	6304ef00 	daddi	a0,t8,-4352
81c009f8:	81c05574 	lb	zero,21876(t6)                                     ; Memory Access: Memory read/write operation
81c009fc:	a2000000 	sb	zero,0(s0)                                     ; Memory Access: Memory read/write operation
81c00a00:	d10663fc 	lld	a2,25596(t0)
81c00a04:	d0056207 	lld	a1,25095(zero)
81c00a08:	9980b108 	lwr	zero,-20216(t4)                                     ; Memory Access: Memory read/write operation
81c00a0c:	b2089c00 	sdl	t0,-25600(s0)
81c00a10:	1a036c00 	0x1a036c00
81c00a14:	9a40039b 	lwr	zero,923(s2)                                     ; Memory Access: Memory read/write operation
81c00a18:	b2069960 	sdl	a2,-26272(s0)
81c00a1c:	9707db00 	lhu	a3,-9472(t8)                                     ; Memory Access: Memory read/write operation
81c00a20:	90059106 	lbu	a1,-28410(zero)                                     ; Memory Access: Memory read/write operation
81c00a24:	6304ef00 	daddi	a0,t8,-4352
81c00a28:	81c05574 	lb	zero,21876(t6)                                     ; Memory Access: Memory read/write operation
81c00a2c:	a18c0000 	sb	t4,0(t4)                                     ; Memory Access: Memory read/write operation
81c00a30:	a8000000 	swl	zero,0(zero)                                     ; Memory Access: Memory read/write operation
81c00a34:	620963fb 	daddi	t1,s0,25595
81c00a38:	d007d108 	lld	a3,-12024(zero)
81c00a3c:	9b40b313 	lwr	zero,-19693(k0)                                     ; Memory Access: Memory read/write operation
81c00a40:	9a20d40a 	lwr	zero,-11254(s1)                                     ; Memory Access: Memory read/write operation
81c00a44:	03c21a03 	0x3c21a03
81c00a48:	67626800 	daddiu	v0,k1,26624
81c00a4c:	1a031008 	0x1a031008
81c00a50:	d30403c2 	lld	a0,962(t8)
81c00a54:	e2739304 	sc	s3,-27900(s3)
81c00a58:	61015c05 	daddi	at,t0,23557
81c00a5c:	b40c6801 	sdr	t4,26625(zero)
81c00a60:	9cc26d01 	lwu	v0,27905(a2)                                     ; Memory Access: Memory read/write operation
81c00a64:	2e03eeac 	sltiu	v1,s0,-4436
81c00a68:	674520f2 	daddiu	a1,k0,8434
81c00a6c:	67501004 	daddiu	s0,k0,4100
81c00a70:	950a2802 	lhu	t2,10242(t0)                                     ; Memory Access: Memory read/write operation
81c00a74:	b005dca2 	sdl	a1,-9054(zero)
81c00a78:	df2098e0 	ld	zero,-26400(t9)
81c00a7c:	91089709 	lbu	t0,-26871(t0)                                     ; Memory Access: Memory read/write operation
81c00a80:	ef009007 	swc3	$0,-28665(t8)                                     ; Memory Access: Memory read/write operation
81c00a84:	65006305 	daddiu	zero,t0,25349
81c00a88:	81c05574 	lb	zero,21876(t6)                                     ; Memory Access: Memory read/write operation
81c00a8c:	a1a3f000 	sb	v1,-4096(t5)                                     ; Memory Access: Memory read/write operation
81c00a90:	b50db20c 	sdr	t5,-19956(t0)
81c00a94:	6f01b30d 	ldr	at,-19699(t8)
81c00a98:	6c00b60d 	ldr	zero,-18931(zero)
81c00a9c:	daa0c6e0 	ldc2	$0,-14624(s5)                                     ; Memory Access: Memory read/write operation
81c00aa0:	da71da91 	ldc2	$17,-9583(s3)                                     ; Memory Access: Memory read/write operation
81c00aa4:	b40bb207 	sdr	t3,-19961(zero)
81c00aa8:	eb8c9a72 	swc2	$12,-25998(gp)                                     ; Memory Access: Memory read/write operation
81c00aac:	9af123fb 	lwr	s1,9211(s7)                                     ; Memory Access: Memory read/write operation
81c00ab0:	b60ab309 	sdr	t2,-19703(s0)
81c00ab4:	ef6db50a 	swc3	$13,-19190(k1)                                     ; Memory Access: Memory read/write operation
81c00ab8:	dad2daf1 	ldc2	$18,-9487(s6)                                     ; Memory Access: Memory read/write operation
81c00abc:	daa0e820 	ldc2	$0,-6112(s5)                                     ; Memory Access: Memory read/write operation
81c00ac0:	a1a00000 	sb	zero,0(t5)                                     ; Hardware Register Access: operation targeting REG_SYS_CTRL_REG_DBG at 0xA1A00000
81c00ac4:	00a50001 	0xa50001
81c00ac8:	00110011 	0x110011
81c00acc:	81c05570 	lb	zero,21872(t6)                                     ; Memory Access: Memory read/write operation
81c00ad0:	01000000 	0x1000000
81c00ad4:	10001000 	b	0x81c04ad8                                       ; Branch: evaluate condition and jump (error state fallback/looping)
81c00ad8:	40000020 	0x40000020
81c00adc:	00a50000 	0xa50000
81c00ae0:	9a40b20b 	lwr	zero,-19957(s2)                                     ; Memory Access: Memory read/write operation
81c00ae4:	33422c03 	andi	v0,k0,0x2c03                                     ; Bitwise isolation/masking operation
81c00ae8:	3262e820 	andi	v0,s3,0xe820                                     ; Bitwise isolation/masking operation
81c00aec:	61067401 	daddi	a2,t0,29697
81c00af0:	6d00f00e 	ldr	zero,-4082(t0)
81c00af4:	34a2ed4c 	ori	v0,a1,0xed4c                                      ; Bitwise isolation/masking operation
81c00af8:	3292e820 	andi	s2,s4,0xe820                                     ; Bitwise isolation/masking operation
81c00afc:	61037402 	daddi	v1,t0,29698
81c00b00:	6e1ff7e1 	ldr	ra,-2079(s0)
81c00b04:	e820eacc 	swc2	$0,-5428(at)                                     ; Memory Access: Memory read/write operation
81c00b08:	65006500 	daddiu	zero,t0,25856
81c00b0c:	a1a24000 	sb	v0,16384(t5)                                     ; Memory Access: Memory read/write operation
81c00b10:	9a45b205 	lwr	a1,-19963(s2)                                     ; Memory Access: Memory read/write operation
81c00b14:	9ea5b604 	lwu	a1,-18940(s5)                                     ; Memory Access: Memory read/write operation
81c00b18:	eb83e54f 	swc2	$3,-6833(gp)                                     ; Memory Access: Memory read/write operation
81c00b1c:	e82061fb 	swc2	$0,25083(at)                                     ; Memory Access: Memory read/write operation
81c00b20:	65006500 	daddiu	zero,t0,25856
81c00b24:	a1a02000 	sb	zero,8192(t5)                                ; Hardware Register Access: sb operation targeting REG_TIMER_OSTIMER_CTRL at 0xA1A02000                                     ; Hardware Register Access: operation targeting REG_TIMER_OSTIMER_CTRL at 0xA1A02000
81c00b28:	620563fd 	daddi	a1,s0,25597
81c00b2c:	e8452c01 	swc2	$5,11265(v0)                                     ; Memory Access: Memory read/write operation
81c00b30:	1a03b506 	0x1a03b506
81c00b34:	65000274 	daddiu	zero,t0,628
81c00b38:	f008b205 	scd	t0,-19963(zero)
81c00b3c:	da606b00 	ldc2	$0,27392(s3)                                     ; Memory Access: Memory read/write operation
81c00b40:	ef009705 	swc3	$0,-26875(t8)                                     ; Memory Access: Memory read/write operation
81c00b44:	65006303 	daddiu	zero,t0,25347
81c00b48:	81c00f15 	lb	zero,3861(t6)                                     ; Memory Access: Memory read/write operation
81c00b4c:	a1a04410 	sb	zero,17424(t5)                                     ; Memory Access: Memory read/write operation
81c00b50:	3c0681c1 	lui	a2,0x81c1                                     ; Load upper immediate (setup 16-bit hardware base)
81c00b54:	3c0581c0 	lui	a1,0x81c0                                     ; Load upper immediate (setup 16-bit hardware base)
81c00b58:	24c3fffc 	addiu	v1,a2,-4                                     ; Math operation on registers
81c00b5c:	aca300c4 	sw	v1,196(a1)                                     ; Memory Access: Memory read/write operation
81c00b60:	27bdffe8 	addiu	sp,sp,-24                           ; Stack pointer adjustment (allocate/deallocate frame)                                     ; Math operation on registers
81c00b64:	afbf0014 	sw	ra,20(sp)                                     ; Memory Access: Memory read/write operation
81c00b68:	8ca200c4 	lw	v0,196(a1)                                     ; Memory Access: Memory read/write operation
81c00b6c:	00000000 	nop                                     ; Execution delay slot placeholder / No Operation
81c00b70:	0c7002f0 	j	0x81c00bc0                                       ; Jump or subroutine call
81c00b74:	0040e821 	move	sp,v0                                    ; Move register value
81c00b78:	00000000 	nop                                     ; Execution delay slot placeholder / No Operation
81c00b7c:	8fbf0014 	lw	ra,20(sp)                                     ; Memory Access: Memory read/write operation
81c00b80:	00000000 	nop                                     ; Execution delay slot placeholder / No Operation
81c00b84:	03e00008 	j	ra                                       ; Jump or subroutine call
81c00b88:	27bd0018 	addiu	sp,sp,24                           ; Stack pointer adjustment (allocate/deallocate frame)                                     ; Math operation on registers
81c00b8c:	27bdffe8 	addiu	sp,sp,-24                           ; Stack pointer adjustment (allocate/deallocate frame)                                     ; Math operation on registers
81c00b90:	afbf0014 	sw	ra,20(sp)                                     ; Memory Access: Memory read/write operation
81c00b94:	0001000d 	b	0x1                                       ; Branch: evaluate condition and jump (error state fallback/looping)
	...
81c00ba4:	00002021 	move	a0,zero                                    ; Move register value
81c00ba8:	0c700473 	j	0x81c011cc                                       ; Jump or subroutine call
81c00bac:	00002821 	move	a1,zero                                    ; Move register value
81c00bb0:	8fbf0014 	lw	ra,20(sp)                                     ; Memory Access: Memory read/write operation
81c00bb4:	00000000 	nop                                     ; Execution delay slot placeholder / No Operation
81c00bb8:	03e00008 	j	ra                                       ; Jump or subroutine call
81c00bbc:	27bd0018 	addiu	sp,sp,24                           ; Stack pointer adjustment (allocate/deallocate frame)                                     ; Math operation on registers
81c00bc0:	27bdffe8 	addiu	sp,sp,-24                           ; Stack pointer adjustment (allocate/deallocate frame)                                     ; Math operation on registers
81c00bc4:	afb00010 	sw	s0,16(sp)                                     ; Memory Access: Memory read/write operation
81c00bc8:	afbf0014 	sw	ra,20(sp)                                     ; Memory Access: Memory read/write operation
81c00bcc:	3c05a1a0 	lui	a1,0xa1a0                                     ; Load upper immediate (setup 16-bit hardware base)
81c00bd0:	8ca300a0 	lw	v1,160(a1)                                 ; Hardware Register Access: lw operation targeting REG_SYS_CTRL_RESET_CAUSE at 0xA1A000A0
81c00bd4:	00808021 	move	s0,a0                                    ; Move register value
81c00bd8:	30620001 	andi	v0,v1,0x1                                     ; Bitwise isolation/masking operation
81c00bdc:	1040001d 	b	v0,0x81c00c54                                       ; Branch: evaluate condition and jump (error state fallback/looping)
81c00be0:	3c03a1c0 	lui	v1,0xa1c0                                     ; Load upper immediate (setup 16-bit hardware base)
81c00be4:	3c07c001 	lui	a3,0xc001                                     ; Load upper immediate (setup 16-bit hardware base)
81c00be8:	8c645a10 	lw	a0,23056(v1)                                     ; Memory Access: Memory read/write operation
81c00bec:	34e6c001 	ori	a2,a3,0xc001                                      ; Bitwise isolation/masking operation
81c00bf0:	10860004 	b	a0,a2,0x81c00c04                                       ; Branch: evaluate condition and jump (error state fallback/looping)
81c00bf4:	3c08dead 	lui	t0,0xdead                                     ; Load upper immediate (setup 16-bit hardware base)
81c00bf8:	3502beef 	ori	v0,t0,0xbeef                                      ; Bitwise isolation/masking operation
81c00bfc:	14820017 	b	a0,v0,0x81c00c5c                                       ; Branch: evaluate condition and jump (error state fallback/looping)
81c00c00:	00000000 	nop                                     ; Execution delay slot placeholder / No Operation
81c00c04:	3c02a198 	lui	v0,0xa198                                     ; Load upper immediate (setup 16-bit hardware base)
81c00c08:	3c09a1c0 	lui	t1,0xa1c0                                     ; Load upper immediate (setup 16-bit hardware base)
81c00c0c:	3c045e68 	lui	a0,0x5e68                                     ; Load upper immediate (setup 16-bit hardware base)
81c00c10:	25255a10 	addiu	a1,t1,23056                                     ; Math operation on registers
81c00c14:	34840004 	ori	a0,a0,0x4                                      ; Bitwise isolation/masking operation
81c00c18:	34430098 	ori	v1,v0,0x98                                      ; Bitwise isolation/masking operation
81c00c1c:	00a2c821 	addu	t9,a1,v0                                     ; Math operation on registers
81c00c20:	8c580000 	lw	t8,0(v0)                                     ; Memory Access: Memory read/write operation
81c00c24:	03245021 	addu	t2,t9,a0                                     ; Math operation on registers
81c00c28:	24420004 	addiu	v0,v0,4                                     ; Math operation on registers
81c00c2c:	1443fffb 	b	v0,v1,0x81c00c1c                                       ; Branch: evaluate condition and jump (error state fallback/looping)
81c00c30:	ad580000 	sw	t8,0(t2)                                     ; Memory Access: Memory read/write operation
81c00c34:	3c03c001 	lui	v1,0xc001                                     ; Load upper immediate (setup 16-bit hardware base)
81c00c38:	3462c001 	ori	v0,v1,0xc001                                      ; Bitwise isolation/masking operation
81c00c3c:	3c1fa1c0 	lui	ra,0xa1c0                                     ; Load upper immediate (setup 16-bit hardware base)
81c00c40:	afe25a10 	sw	v0,23056(ra)                                     ; Memory Access: Memory read/write operation
81c00c44:	7470091c 	j	0x81c02471                                       ; Jump or subroutine call
81c00c48:	00000000 	nop                                     ; Execution delay slot placeholder / No Operation
81c00c4c:	08700319 	j	0x81c00c64                                       ; Jump or subroutine call
81c00c50:	3c0481c0 	lui	a0,0x81c0                                     ; Load upper immediate (setup 16-bit hardware base)
81c00c54:	3c05c001 	lui	a1,0xc001                                     ; Load upper immediate (setup 16-bit hardware base)
81c00c58:	34a2c001 	ori	v0,a1,0xc001                                      ; Bitwise isolation/masking operation
81c00c5c:	ac625a10 	sw	v0,23056(v1)                                     ; Memory Access: Memory read/write operation
81c00c60:	3c0481c0 	lui	a0,0x81c0                                     ; Load upper immediate (setup 16-bit hardware base)
81c00c64:	3c0a81c0 	lui	t2,0x81c0                                     ; Load upper immediate (setup 16-bit hardware base)
81c00c68:	3c0981c0 	lui	t1,0x81c0                                     ; Load upper immediate (setup 16-bit hardware base)
81c00c6c:	3c0881b0 	lui	t0,0x81b0                                     ; Load upper immediate (setup 16-bit hardware base)
81c00c70:	3c070000 	lui	a3,0x0                                     ; Load upper immediate (setup 16-bit hardware base)
81c00c74:	3c060000 	lui	a2,0x0                                     ; Load upper immediate (setup 16-bit hardware base)
81c00c78:	ad4000b8 	sw	zero,184(t2)                                     ; Memory Access: Memory read/write operation
81c00c7c:	ad2000c0 	sw	zero,192(t1)                                     ; Memory Access: Memory read/write operation
81c00c80:	ac8000bc 	sw	zero,188(a0)                                     ; Memory Access: Memory read/write operation
81c00c84:	25030000 	addiu	v1,t0,0                                     ; Math operation on registers
81c00c88:	24e20000 	addiu	v0,a3,0                                     ; Math operation on registers
81c00c8c:	08700329 	j	0x81c00ca4                                       ; Jump or subroutine call
81c00c90:	24c40000 	addiu	a0,a2,0                                     ; Math operation on registers
81c00c94:	8c580000 	lw	t8,0(v0)                                     ; Memory Access: Memory read/write operation
81c00c98:	24420004 	addiu	v0,v0,4                                     ; Math operation on registers
81c00c9c:	ac780000 	sw	t8,0(v1)                                     ; Memory Access: Memory read/write operation
81c00ca0:	24630004 	addiu	v1,v1,4                                     ; Math operation on registers
81c00ca4:	0044c82b 	sltu	t9,v0,a0                                    ; Set on Less Than (bounds validation evaluation)
81c00ca8:	1720fffa 	b	t9,0x81c00c94                                       ; Branch: evaluate condition and jump (error state fallback/looping)
81c00cac:	3c1f81b0 	lui	ra,0x81b0                                     ; Load upper immediate (setup 16-bit hardware base)
81c00cb0:	3c0281b0 	lui	v0,0x81b0                                     ; Load upper immediate (setup 16-bit hardware base)
81c00cb4:	24420000 	addiu	v0,v0,0                                     ; Math operation on registers
81c00cb8:	08700332 	j	0x81c00cc8                                       ; Jump or subroutine call
81c00cbc:	27e30000 	addiu	v1,ra,0                                     ; Math operation on registers
81c00cc0:	ac400000 	sw	zero,0(v0)                                     ; Memory Access: Memory read/write operation
81c00cc4:	24420004 	addiu	v0,v0,4                                     ; Math operation on registers
81c00cc8:	0043282b 	sltu	a1,v0,v1                                    ; Set on Less Than (bounds validation evaluation)
81c00ccc:	14a0fffc 	b	a1,0x81c00cc0                                       ; Branch: evaluate condition and jump (error state fallback/looping)
81c00cd0:	3c070000 	lui	a3,0x0                                     ; Load upper immediate (setup 16-bit hardware base)
81c00cd4:	3c0381c0 	lui	v1,0x81c0                                     ; Load upper immediate (setup 16-bit hardware base)
81c00cd8:	3c060000 	lui	a2,0x0                                     ; Load upper immediate (setup 16-bit hardware base)
81c00cdc:	24630280 	addiu	v1,v1,640                                     ; Math operation on registers
81c00ce0:	24e20000 	addiu	v0,a3,0                                     ; Math operation on registers
81c00ce4:	0870033f 	j	0x81c00cfc                                       ; Jump or subroutine call
81c00ce8:	24c40000 	addiu	a0,a2,0                                     ; Math operation on registers
81c00cec:	8c480000 	lw	t0,0(v0)                                     ; Memory Access: Memory read/write operation
81c00cf0:	24420004 	addiu	v0,v0,4                                     ; Math operation on registers
81c00cf4:	ac680000 	sw	t0,0(v1)                                     ; Memory Access: Memory read/write operation
81c00cf8:	24630004 	addiu	v1,v1,4                                     ; Math operation on registers
81c00cfc:	0044482b 	sltu	t1,v0,a0                                    ; Set on Less Than (bounds validation evaluation)
81c00d00:	1520fffa 	b	t1,0x81c00cec                                       ; Branch: evaluate condition and jump (error state fallback/looping)
81c00d04:	3c1881c0 	lui	t8,0x81c0                                     ; Load upper immediate (setup 16-bit hardware base)
81c00d08:	3c0a0000 	lui	t2,0x0                                     ; Load upper immediate (setup 16-bit hardware base)
81c00d0c:	3c040000 	lui	a0,0x0                                     ; Load upper immediate (setup 16-bit hardware base)
81c00d10:	27030280 	addiu	v1,t8,640                                     ; Math operation on registers
81c00d14:	25420000 	addiu	v0,t2,0                                     ; Math operation on registers
81c00d18:	0870034c 	j	0x81c00d30                                       ; Jump or subroutine call
81c00d1c:	24840000 	addiu	a0,a0,0                                     ; Math operation on registers
81c00d20:	8c590000 	lw	t9,0(v0)                                     ; Memory Access: Memory read/write operation
81c00d24:	24420004 	addiu	v0,v0,4                                     ; Math operation on registers
81c00d28:	ac790000 	sw	t9,0(v1)                                     ; Memory Access: Memory read/write operation
81c00d2c:	24630004 	addiu	v1,v1,4                                     ; Math operation on registers
81c00d30:	0044f82b 	sltu	ra,v0,a0                                    ; Set on Less Than (bounds validation evaluation)
81c00d34:	17e0fffa 	b	ra,0x81c00d20                                       ; Branch: evaluate condition and jump (error state fallback/looping)
81c00d38:	3c0581c0 	lui	a1,0x81c0                                     ; Load upper immediate (setup 16-bit hardware base)
81c00d3c:	3c0281c0 	lui	v0,0x81c0                                     ; Load upper immediate (setup 16-bit hardware base)
81c00d40:	24425ab0 	addiu	v0,v0,23216                                     ; Math operation on registers
81c00d44:	08700355 	j	0x81c00d54                                       ; Jump or subroutine call
81c00d48:	24a36f50 	addiu	v1,a1,28496                                     ; Math operation on registers
81c00d4c:	ac400000 	sw	zero,0(v0)                                     ; Memory Access: Memory read/write operation
81c00d50:	24420004 	addiu	v0,v0,4                                     ; Math operation on registers
81c00d54:	0043302b 	sltu	a2,v0,v1                                    ; Set on Less Than (bounds validation evaluation)
81c00d58:	14c0fffc 	b	a2,0x81c00d4c                                       ; Branch: evaluate condition and jump (error state fallback/looping)
81c00d5c:	3c080000 	lui	t0,0x0                                     ; Load upper immediate (setup 16-bit hardware base)
81c00d60:	3c038200 	lui	v1,0x8200                                     ; Load upper immediate (setup 16-bit hardware base)
81c00d64:	3c070000 	lui	a3,0x0                                     ; Load upper immediate (setup 16-bit hardware base)
81c00d68:	24630000 	addiu	v1,v1,0                                     ; Math operation on registers
81c00d6c:	25020000 	addiu	v0,t0,0                                     ; Math operation on registers
81c00d70:	08700362 	j	0x81c00d88                                       ; Jump or subroutine call
81c00d74:	24e40000 	addiu	a0,a3,0                                     ; Math operation on registers
81c00d78:	8c490000 	lw	t1,0(v0)                                     ; Memory Access: Memory read/write operation
81c00d7c:	24420004 	addiu	v0,v0,4                                     ; Math operation on registers
81c00d80:	ac690000 	sw	t1,0(v1)                                     ; Memory Access: Memory read/write operation
81c00d84:	24630004 	addiu	v1,v1,4                                     ; Math operation on registers
81c00d88:	0044502b 	sltu	t2,v0,a0                                    ; Set on Less Than (bounds validation evaluation)
81c00d8c:	1540fffa 	b	t2,0x81c00d78                                       ; Branch: evaluate condition and jump (error state fallback/looping)
81c00d90:	3c188200 	lui	t8,0x8200                                     ; Load upper immediate (setup 16-bit hardware base)
81c00d94:	3c048202 	lui	a0,0x8202                                     ; Load upper immediate (setup 16-bit hardware base)
81c00d98:	27020000 	addiu	v0,t8,0                                     ; Math operation on registers
81c00d9c:	0870036b 	j	0x81c00dac                                       ; Jump or subroutine call
81c00da0:	24838000 	addiu	v1,a0,-32768                                     ; Math operation on registers
81c00da4:	ac400000 	sw	zero,0(v0)                                     ; Memory Access: Memory read/write operation
81c00da8:	24420004 	addiu	v0,v0,4                                     ; Math operation on registers
81c00dac:	0043c82b 	sltu	t9,v0,v1                                    ; Set on Less Than (bounds validation evaluation)
81c00db0:	1720fffc 	b	t9,0x81c00da4                                       ; Branch: evaluate condition and jump (error state fallback/looping)
81c00db4:	3c0681e0 	lui	a2,0x81e0                                     ; Load upper immediate (setup 16-bit hardware base)
81c00db8:	3c021120 	lui	v0,0x1120                                     ; Load upper immediate (setup 16-bit hardware base)
81c00dbc:	8cc54ff8 	lw	a1,20472(a2)                                     ; Memory Access: Memory read/write operation
81c00dc0:	345f1201 	ori	ra,v0,0x1201                                      ; Bitwise isolation/masking operation
81c00dc4:	10bf0005 	b	a1,ra,0x81c00ddc                                       ; Branch: evaluate condition and jump (error state fallback/looping)
81c00dc8:	00000000 	nop                                     ; Execution delay slot placeholder / No Operation
81c00dcc:	7470028d 	j	0x81c00a35                                       ; Jump or subroutine call
81c00dd0:	24040054 	li	a0,84                                      ; Load Immediate pseudo-instruction
81c00dd4:	08700375 	j	0x81c00dd4                                       ; Jump or subroutine call
81c00dd8:	00000000 	nop                                     ; Execution delay slot placeholder / No Operation
81c00ddc:	341be001 	li	k1,0xe001                                      ; Load Immediate pseudo-instruction
81c00de0:	40806800 	mtc0	zero,$13                                   ; Coprocessor 0: Exception Cause Register access
81c00de4:	00000000 	nop                                     ; Execution delay slot placeholder / No Operation
81c00de8:	409b6000 	mtc0	k1,$12                                   ; Coprocessor 0: Status Register (Interrupt bounds) access
81c00dec:	241b0001 	li	k1,1                                      ; Load Immediate pseudo-instruction
81c00df0:	7470028d 	j	0x81c00a35                                       ; Jump or subroutine call
81c00df4:	24040057 	li	a0,87                                      ; Load Immediate pseudo-instruction
81c00df8:	74700699 	j	0x81c01a65                                       ; Jump or subroutine call
81c00dfc:	00000000 	nop                                     ; Execution delay slot placeholder / No Operation
81c00e00:	747014e7 	j	0x81c0539d                                       ; Jump or subroutine call
81c00e04:	00402021 	move	a0,v0                                    ; Move register value
81c00e08:	3c0aa1a0 	lui	t2,0xa1a0                                     ; Load upper immediate (setup 16-bit hardware base)
81c00e0c:	3c08b4ea 	lui	t0,0xb4ea                                     ; Load upper immediate (setup 16-bit hardware base)
81c00e10:	24032f01 	li	v1,12033                                      ; Load Immediate pseudo-instruction
81c00e14:	3549d000 	ori	t1,t2,0xd000                                      ; Bitwise isolation/masking operation
81c00e18:	3507b007 	ori	a3,t0,0xb007                                      ; Bitwise isolation/masking operation
81c00e1c:	ad230044 	sw	v1,68(t1)                                     ; Memory Access: Memory read/write operation
81c00e20:	12070008 	b	s0,a3,0x81c00e44                                       ; Branch: evaluate condition and jump (error state fallback/looping)
81c00e24:	3c18ca1b 	lui	t8,0xca1b                                     ; Load upper immediate (setup 16-bit hardware base)
81c00e28:	3704ca1b 	ori	a0,t8,0xca1b                                      ; Bitwise isolation/masking operation
81c00e2c:	16040009 	b	s0,a0,0x81c00e54                                       ; Branch: evaluate condition and jump (error state fallback/looping)
81c00e30:	00002021 	move	a0,zero                                    ; Move register value
81c00e34:	74700668 	j	0x81c019a1                                       ; Jump or subroutine call
81c00e38:	00002821 	move	a1,zero                                    ; Move register value
81c00e3c:	08700397 	j	0x81c00e5c                                       ; Jump or subroutine call
81c00e40:	00000000 	nop                                     ; Execution delay slot placeholder / No Operation
81c00e44:	8fbf0014 	lw	ra,20(sp)                                     ; Memory Access: Memory read/write operation
81c00e48:	8fb00010 	lw	s0,16(sp)                                     ; Memory Access: Memory read/write operation
81c00e4c:	087002e3 	j	0x81c00b8c                                       ; Jump or subroutine call
81c00e50:	27bd0018 	addiu	sp,sp,24                           ; Stack pointer adjustment (allocate/deallocate frame)                                     ; Math operation on registers
81c00e54:	0c700473 	j	0x81c011cc                                       ; Jump or subroutine call
81c00e58:	00002821 	move	a1,zero                                    ; Move register value
81c00e5c:	8fbf0014 	lw	ra,20(sp)                                     ; Memory Access: Memory read/write operation
81c00e60:	8fb00010 	lw	s0,16(sp)                                     ; Memory Access: Memory read/write operation
81c00e64:	03e00008 	j	ra                                       ; Jump or subroutine call
81c00e68:	27bd0018 	addiu	sp,sp,24                           ; Stack pointer adjustment (allocate/deallocate frame)                                     ; Math operation on registers
81c00e6c:	d10e63f8 	lld	t6,25592(t0)
81c00e70:	620fd00d 	daddi	t7,s0,-12275
81c00e74:	b01f9de1 	sdl	ra,-25119(zero)
81c00e78:	9840b11f 	lwr	zero,-20193(v0)                                     ; Memory Access: Memory read/write operation
81c00e7c:	9d60d70a 	lwu	zero,-10486(t3)                                     ; Memory Access: Memory read/write operation
81c00e80:	d3046d01 	lld	a0,27905(t8)
81c00e84:	d9a0d842 	ldc2	$0,-10174(t5)                                     ; Memory Access: Memory read/write operation
81c00e88:	6c012c2d 	ldr	at,11309(zero)
81c00e8c:	651cb71b 	daddiu	gp,t0,-18661
81c00e90:	6778260b 	daddiu	t8,k1,9739
81c00e94:	6787b51a 	daddiu	a3,gp,-19174
81c00e98:	d706d207 	ldc1	$f6,-11769(t8)                                     ; Memory Access: Memory read/write operation
81c00e9c:	d305ee40 	lld	a1,-4544(t8)
81c00ea0:	97069205 	lhu	a2,-28155(t8)                                     ; Memory Access: Memory read/write operation
81c00ea4:	9207651a 	lbu	a3,25882(s0)                                     ; Memory Access: Memory read/write operation
81c00ea8:	9504b616 	lhu	a0,-18922(t0)                                     ; Memory Access: Memory read/write operation
81c00eac:	f4009e80 	sdc1	$f0,-24960(zero)                                     ; Memory Access: Memory read/write operation
81c00eb0:	610cd9ac 	daddi	t4,t0,-9812
81c00eb4:	9404950a 	lhu	a0,-27382(zero)                                     ; Memory Access: Memory read/write operation
81c00eb8:	d9b8f400 	ldc2	$24,-3072(t5)                                     ; Memory Access: Memory read/write operation
81c00ebc:	d605d207 	ldc1	$f5,-11769(s0)                                     ; Memory Access: Memory read/write operation
81c00ec0:	01e81a03 	0x1e81a03
81c00ec4:	9706d706 	lhu	a2,-10490(t8)                                     ; Memory Access: Memory read/write operation
81c00ec8:	92079605 	lbu	a3,-27131(s0)                                     ; Memory Access: Memory read/write operation
81c00ecc:	6e009e60 	ldr	zero,-24992(s0)
81c00ed0:	af60d9c0 	sw	zero,-9792(k1)                                     ; Memory Access: Memory read/write operation
81c00ed4:	d840af60 	ldc2	$0,-20640(v0)                                     ; Memory Access: Memory read/write operation
81c00ed8:	9840970f 	lwr	zero,-26865(v0)                                     ; Memory Access: Memory read/write operation
81c00edc:	900d910e 	lbu	t5,-28402(zero)                                     ; Memory Access: Memory read/write operation
81c00ee0:	6308ef00 	daddi	t0,t8,-4352
81c00ee4:	61027401 	daddi	v0,t0,29697
81c00ee8:	17d2b707 	b	s8,s2,0x81beeb08                                       ; Branch: evaluate condition and jump (error state fallback/looping)
81c00eec:	17d06f00 	b	s8,s0,0x81c1caf0                                       ; Branch: evaluate condition and jump (error state fallback/looping)
81c00ef0:	a1a0c000 	sb	zero,-16384(t5)                                     ; Memory Access: Memory read/write operation
81c00ef4:	a1a04000 	sb	zero,16384(t5)                                     ; Memory Access: Memory read/write operation
81c00ef8:	a8000000 	swl	zero,0(zero)                                     ; Memory Access: Memory read/write operation
81c00efc:	a18c0004 	sb	t4,4(t4)                                     ; Memory Access: Memory read/write operation
81c00f00:	a18c0000 	sb	t4,0(t4)                                     ; Memory Access: Memory read/write operation
81c00f04:	a2000000 	sb	zero,0(s0)                                     ; Memory Access: Memory read/write operation
81c00f08:	e820b202 	swc2	$0,-19966(at)                                     ; Memory Access: Memory read/write operation
81c00f0c:	65009a45 	daddiu	zero,t0,-26043
81c00f10:	a1a02000 	sb	zero,8192(t5)                                ; Hardware Register Access: sb operation targeting REG_TIMER_OSTIMER_CTRL at 0xA1A02000                                     ; Hardware Register Access: operation targeting REG_TIMER_OSTIMER_CTRL at 0xA1A02000
81c00f14:	f7ffb207 	sdc1	$f31,-19961(ra)                                     ; Memory Access: Memory read/write operation
81c00f18:	e4596b1f 	swc1	$f25,27423(v0)                                     ; Memory Access: Memory read/write operation
81c00f1c:	6c01aee0 	ldr	at,-20768(zero)
81c00f20:	dd80ebec 	ld	zero,-5140(t4)
81c00f24:	9d40ce60 	lwu	zero,-12704(t2)                                     ; Memory Access: Memory read/write operation
81c00f28:	e8206a00 	swc2	$0,27136(at)                                     ; Memory Access: Memory read/write operation
81c00f2c:	6500dd40 	daddiu	zero,t0,-8896
81c00f30:	0010e21e 	0x10e21e
81c00f34:	d00463fd 	lld	a0,25597(zero)
81c00f38:	681ff7ff 	ldl	ra,-2049(zero)
81c00f3c:	f1e0e8ac 	scd	zero,-5972(t7)
81c00f40:	ed8c6d1f 	swc3	$12,27935(t4)                                     ; Memory Access: Memory read/write operation
81c00f44:	326033a0 	andi	zero,s3,0x33a0                                     ; Bitwise isolation/masking operation
81c00f48:	e84d6205 	swc2	$13,25093(v0)                                     ; Memory Access: Memory read/write operation
81c00f4c:	03fd1a03 	0x3fd1a03
81c00f50:	22fc6c00 	addi	gp,s7,27648                                     ; Math operation on registers
81c00f54:	67b06c00 	daddiu	s0,sp,27648
81c00f58:	04011a03 	b	0x81c07768                                       ; Branch: evaluate condition and jump (error state fallback/looping)
81c00f5c:	22f667c4 	addi	s6,s7,26564                                     ; Math operation on registers
81c00f60:	03f91a03 	0x3f91a03
81c00f64:	22fc6c00 	addi	gp,s7,27648                                     ; Math operation on registers
81c00f68:	90049705 	lbu	a0,-26875(zero)                                     ; Memory Access: Memory read/write operation
81c00f6c:	6303ef00 	daddi	v1,t8,-4352
81c00f70:	d00563fc 	lld	a1,25596(zero)
81c00f74:	d1066207 	lld	a2,25095(t0)
81c00f78:	9b40b317 	lwr	zero,-19689(k0)                                     ; Memory Access: Memory read/write operation
81c00f7c:	9a206704 	lwr	zero,26372(s1)                                     ; Memory Access: Memory read/write operation
81c00f80:	610b7401 	daddi	t3,t0,29697
81c00f84:	0b3e1a03 	j	0x8cf8680c                                       ; Jump or subroutine call
81c00f88:	b3146500 	sdl	s4,25856(t8)
81c00f8c:	6e02ab80 	ldr	v0,-21632(s0)
81c00f90:	eacbb713 	swc2	$11,-18669(s6)                                     ; Memory Access: Memory read/write operation
81c00f94:	ea8cafa0 	swc2	$12,-20576(s4)                                     ; Memory Access: Memory read/write operation
81c00f98:	6d001008 	ldr	zero,4104(t0)
81c00f9c:	b30f2c07 	sdl	t7,11271(t8)
81c00fa0:	ab80b210 	swl	zero,-19952(gp)                                     ; Memory Access: Memory read/write operation
81c00fa4:	6a01aaa0 	ldl	at,-21856(s0)
81c00fa8:	cb40ea8d 	lwc2	$0,-5491(k0)                                     ; Memory Access: Memory read/write operation
81c00fac:	0da11a03 	j	0x8684680c                                       ; Jump or subroutine call
81c00fb0:	b30a6c18 	sdl	t2,27672(t8)
81c00fb4:	1a03aba0 	0x1a03aba0
81c00fb8:	6c170da1 	ldr	s7,3489(zero)
81c00fbc:	1a032803 	0x1a032803
81c00fc0:	65000b2b 	daddiu	zero,t0,2859
81c00fc4:	98a0b004 	lwr	zero,-20476(a1)                                     ; Memory Access: Memory read/write operation
81c00fc8:	9707dd20 	lhu	a3,-8928(t8)                                     ; Memory Access: Memory read/write operation
81c00fcc:	90059106 	lbu	a1,-28410(zero)                                     ; Memory Access: Memory read/write operation
81c00fd0:	6304ef00 	daddi	a0,t8,-4352
81c00fd4:	81c05574 	lb	zero,21876(t6)                                     ; Memory Access: Memory read/write operation
81c00fd8:	81c0557c 	lb	zero,21884(t6)                                     ; Memory Access: Memory read/write operation
81c00fdc:	81c0557e 	lb	zero,21886(t6)                                     ; Memory Access: Memory read/write operation
81c00fe0:	81c0557a 	lb	zero,21882(t6)                                     ; Memory Access: Memory read/write operation
81c00fe4:	620563fd 	daddi	a1,s0,25597
81c00fe8:	05181b03 	0x5181b03
81c00fec:	97056500 	lhu	a1,25856(t8)                                     ; Memory Access: Memory read/write operation
81c00ff0:	6303ef00 	daddi	v1,t8,-4352
81c00ff4:	620563fd 	daddi	a1,s0,25597
81c00ff8:	05051b03 	0x5051b03
81c00ffc:	97056500 	lhu	a1,25856(t8)                                     ; Memory Access: Memory read/write operation
81c01000:	6303ef00 	daddi	v1,t8,-4352
81c01004:	620563fd 	daddi	a1,s0,25597
81c01008:	b20bd004 	sdl	t3,-12284(s0)
81c0100c:	9a406bff 	lwr	zero,27647(s2)                                     ; Memory Access: Memory read/write operation
81c01010:	b60aebcc 	sdr	t2,-5172(s0)
81c01014:	9e0572ff 	lwu	a1,29439(s0)                                     ; Memory Access: Memory read/write operation
81c01018:	ea8e6004 	swc2	$14,24580(s4)                                     ; Memory Access: Memory read/write operation
81c0101c:	6a002202 	ldl	zero,8706(s0)
81c01020:	1b032b03 	0x1b032b03
81c01024:	67c304d3 	daddiu	v1,s8,1235
81c01028:	db05b304 	ldc2	$5,-19708(t8)                                     ; Memory Access: Memory read/write operation
81c0102c:	90049705 	lbu	a0,-26875(zero)                                     ; Memory Access: Memory read/write operation
81c01030:	6303ef00 	daddi	v1,t8,-4352
81c01034:	81c05580 	lb	zero,21888(t6)                                     ; Memory Access: Memory read/write operation
81c01038:	a1a01000 	sb	zero,4096(t5)                                     ; Memory Access: Memory read/write operation
81c0103c:	620563fd 	daddi	a1,s0,25597
81c01040:	9ea0b606 	lwu	zero,-18938(s5)                                     ; Memory Access: Memory read/write operation
81c01044:	0b561a03 	j	0x8d58680c                                       ; Jump or subroutine call
81c01048:	b2059d40 	sdl	a1,-25280(s0)
81c0104c:	b306b405 	sdl	a2,-19451(t8)
81c01050:	da61da80 	ldc2	$1,-9600(s3)                                     ; Memory Access: Memory read/write operation
81c01054:	650017ff 	daddiu	zero,t0,6143
81c01058:	81c05574 	lb	zero,21876(t6)                                     ; Memory Access: Memory read/write operation
81c0105c:	a1a00000 	sb	zero,0(t5)                                     ; Hardware Register Access: operation targeting REG_SYS_CTRL_REG_DBG at 0xA1A00000
81c01060:	00a50001 	0xa50001
81c01064:	80000000 	lb	zero,0(zero)                                     ; Memory Access: Memory read/write operation
81c01068:	d00463fd 	lld	a0,25597(zero)
81c0106c:	1a036205 	0x1a036205
81c01070:	650003c2 	daddiu	zero,t0,962
81c01074:	1a036c01 	0x1a036c01
81c01078:	6702067c 	daddiu	v0,t8,1660
81c0107c:	03c21a03 	0x3c21a03
81c01080:	f7436500 	sdc1	$f3,25856(k0)                                     ; Memory Access: Memory read/write operation
81c01084:	ea634060 	swc2	$3,16480(s3)                                     ; Memory Access: Memory read/write operation
81c01088:	1a0361f9 	0x1a0361f9
81c0108c:	6c00067c 	ldr	zero,1660(zero)
81c01090:	040f1a03 	0x40f1a03
81c01094:	97056500 	lhu	a1,25856(t8)                                     ; Memory Access: Memory read/write operation
81c01098:	ef009004 	swc3	$0,-28668(t8)                                     ; Memory Access: Memory read/write operation
81c0109c:	65006303 	daddiu	zero,t0,25347
81c010a0:	27bdffd8 	addiu	sp,sp,-40                           ; Stack pointer adjustment (allocate/deallocate frame)                                     ; Math operation on registers
81c010a4:	3c0281c0 	lui	v0,0x81c0                                     ; Load upper immediate (setup 16-bit hardware base)
81c010a8:	3c0881c0 	lui	t0,0x81c0                                     ; Load upper immediate (setup 16-bit hardware base)
81c010ac:	3c0781c0 	lui	a3,0x81c0                                     ; Load upper immediate (setup 16-bit hardware base)
81c010b0:	3c0681c0 	lui	a2,0x81c0                                     ; Load upper immediate (setup 16-bit hardware base)
81c010b4:	afbf0024 	sw	ra,36(sp)                                     ; Memory Access: Memory read/write operation
81c010b8:	244255a4 	addiu	v0,v0,21924                                     ; Math operation on registers
81c010bc:	250855bc 	addiu	t0,t0,21948                                     ; Math operation on registers
81c010c0:	24e755bc 	addiu	a3,a3,21948                                     ; Math operation on registers
81c010c4:	0870043e 	j	0x81c010f8                                       ; Jump or subroutine call
81c010c8:	24c655cc 	addiu	a2,a2,21964                                     ; Math operation on registers
81c010cc:	8c490000 	lw	t1,0(v0)                                     ; Memory Access: Memory read/write operation
81c010d0:	8c640000 	lw	a0,0(v1)                                     ; Memory Access: Memory read/write operation
81c010d4:	24630004 	addiu	v1,v1,4                                     ; Math operation on registers
81c010d8:	ad240000 	sw	a0,0(t1)                                     ; Memory Access: Memory read/write operation
81c010dc:	8d250000 	lw	a1,0(t1)                                     ; Memory Access: Memory read/write operation
81c010e0:	00000000 	nop                                     ; Execution delay slot placeholder / No Operation
81c010e4:	14a40026 	b	a1,a0,0x81c01180                                       ; Branch: evaluate condition and jump (error state fallback/looping)
81c010e8:	00000000 	nop                                     ; Execution delay slot placeholder / No Operation
81c010ec:	1466fff7 	b	v1,a2,0x81c010cc                                       ; Branch: evaluate condition and jump (error state fallback/looping)
81c010f0:	00000000 	nop                                     ; Execution delay slot placeholder / No Operation
81c010f4:	24420004 	addiu	v0,v0,4                                     ; Math operation on registers
81c010f8:	1448fffc 	b	v0,t0,0x81c010ec                                       ; Branch: evaluate condition and jump (error state fallback/looping)
81c010fc:	00e01821 	move	v1,a3                                    ; Move register value
81c01100:	7470073b 	j	0x81c01ced                                       ; Jump or subroutine call
81c01104:	24040001 	li	a0,1                                      ; Load Immediate pseudo-instruction
81c01108:	3c04003f 	lui	a0,0x3f                                     ; Load upper immediate (setup 16-bit hardware base)
81c0110c:	3488ff00 	ori	t0,a0,0xff00                                      ; Bitwise isolation/masking operation
81c01110:	3c07003c 	lui	a3,0x3c                                     ; Load upper immediate (setup 16-bit hardware base)
81c01114:	0048c821 	addu	t9,v0,t0                                     ; Math operation on registers
81c01118:	00473021 	addu	a2,v0,a3                                     ; Math operation on registers
81c0111c:	24180100 	li	t8,256                                      ; Load Immediate pseudo-instruction
81c01120:	3c0a81c0 	lui	t2,0x81c0                                     ; Load upper immediate (setup 16-bit hardware base)
81c01124:	3c0381c0 	lui	v1,0x81c0                                     ; Load upper immediate (setup 16-bit hardware base)
81c01128:	afa60010 	sw	a2,16(sp)                                     ; Memory Access: Memory read/write operation
81c0112c:	afb90018 	sw	t9,24(sp)                                     ; Memory Access: Memory read/write operation
81c01130:	afb8001c 	sw	t8,28(sp)                                     ; Memory Access: Memory read/write operation
81c01134:	afb80014 	sw	t8,20(sp)                                     ; Memory Access: Memory read/write operation
81c01138:	254a55cc 	addiu	t2,t2,21964                                     ; Math operation on registers
81c0113c:	246955bc 	addiu	t1,v1,21948                                     ; Math operation on registers
81c01140:	27a20010 	addiu	v0,sp,16                                     ; Math operation on registers
81c01144:	0870046c 	j	0x81c011b0                                       ; Jump or subroutine call
81c01148:	27a80020 	addiu	t0,sp,32                                     ; Math operation on registers
81c0114c:	8c440000 	lw	a0,0(v0)                                     ; Memory Access: Memory read/write operation
81c01150:	8c5f0004 	lw	ra,4(v0)                                     ; Memory Access: Memory read/write operation
81c01154:	08700465 	j	0x81c01194                                       ; Jump or subroutine call
81c01158:	009fc021 	addu	t8,a0,ra                                     ; Math operation on registers
81c0115c:	8c670000 	lw	a3,0(v1)                                     ; Memory Access: Memory read/write operation
81c01160:	24630004 	addiu	v1,v1,4                                     ; Math operation on registers
81c01164:	aca70000 	sw	a3,0(a1)                                     ; Memory Access: Memory read/write operation
81c01168:	8cb90000 	lw	t9,0(a1)                                     ; Memory Access: Memory read/write operation
81c0116c:	00000000 	nop                                     ; Execution delay slot placeholder / No Operation
81c01170:	13270005 	b	t9,a3,0x81c01188                                       ; Branch: evaluate condition and jump (error state fallback/looping)
81c01174:	00000000 	nop                                     ; Execution delay slot placeholder / No Operation
81c01178:	74780b21 	j	0x81e02c85                                       ; Jump or subroutine call
81c0117c:	00000000 	nop                                     ; Execution delay slot placeholder / No Operation
81c01180:	0870046f 	j	0x81c011bc                                       ; Jump or subroutine call
81c01184:	00001021 	move	v0,zero                                    ; Move register value
81c01188:	146afff4 	b	v1,t2,0x81c0115c                                       ; Branch: evaluate condition and jump (error state fallback/looping)
81c0118c:	00000000 	nop                                     ; Execution delay slot placeholder / No Operation
81c01190:	00c02021 	move	a0,a2                                    ; Move register value
81c01194:	24860004 	addiu	a2,a0,4                                     ; Math operation on registers
81c01198:	0306282b 	sltu	a1,t8,a2                                    ; Set on Less Than (bounds validation evaluation)
81c0119c:	14a00003 	b	a1,0x81c011ac                                       ; Branch: evaluate condition and jump (error state fallback/looping)
81c011a0:	01201821 	move	v1,t1                                    ; Move register value
81c011a4:	08700462 	j	0x81c01188                                       ; Jump or subroutine call
81c011a8:	00802821 	move	a1,a0                                    ; Move register value
81c011ac:	24420008 	addiu	v0,v0,8                                     ; Math operation on registers
81c011b0:	1448ffe6 	b	v0,t0,0x81c0114c                                       ; Branch: evaluate condition and jump (error state fallback/looping)
81c011b4:	00000000 	nop                                     ; Execution delay slot placeholder / No Operation
81c011b8:	24020001 	li	v0,1                                      ; Load Immediate pseudo-instruction
81c011bc:	8fbf0024 	lw	ra,36(sp)                                     ; Memory Access: Memory read/write operation
81c011c0:	00000000 	nop                                     ; Execution delay slot placeholder / No Operation
81c011c4:	03e00008 	j	ra                                       ; Jump or subroutine call
81c011c8:	27bd0028 	addiu	sp,sp,40                           ; Stack pointer adjustment (allocate/deallocate frame)                                     ; Math operation on registers
81c011cc:	3c0981c0 	lui	t1,0x81c0                                     ; Load upper immediate (setup 16-bit hardware base)
81c011d0:	25285954 	addiu	t0,t1,22868                                     ; Math operation on registers
81c011d4:	3c062000 	lui	a2,0x2000                                     ; Load upper immediate (setup 16-bit hardware base)
81c011d8:	27bdff90 	addiu	sp,sp,-112                           ; Stack pointer adjustment (allocate/deallocate frame)                                     ; Math operation on registers
81c011dc:	01062025 	or	a0,t0,a2                                      ; Bitwise isolation/masking operation
81c011e0:	3c07d9ef 	lui	a3,0xd9ef                                     ; Load upper immediate (setup 16-bit hardware base)
81c011e4:	3c050632 	lui	a1,0x632                                     ; Load upper immediate (setup 16-bit hardware base)
81c011e8:	afa40040 	sw	a0,64(sp)                                     ; Memory Access: Memory read/write operation
81c011ec:	34e30045 	ori	v1,a3,0x45                                      ; Bitwise isolation/masking operation
81c011f0:	34a5ea00 	ori	a1,a1,0xea00                                      ; Bitwise isolation/masking operation
81c011f4:	2404001e 	li	a0,30                                      ; Load Immediate pseudo-instruction
81c011f8:	00003021 	move	a2,zero                                    ; Move register value
81c011fc:	afbf006c 	sw	ra,108(sp)                                     ; Memory Access: Memory read/write operation
81c01200:	afb10068 	sw	s1,104(sp)                                     ; Memory Access: Memory read/write operation
81c01204:	afb00064 	sw	s0,100(sp)                                     ; Memory Access: Memory read/write operation
81c01208:	afa30028 	sw	v1,40(sp)                                     ; Memory Access: Memory read/write operation
81c0120c:	afa00024 	sw	zero,36(sp)                                     ; Memory Access: Memory read/write operation
81c01210:	afa0002c 	sw	zero,44(sp)                                     ; Memory Access: Memory read/write operation
81c01214:	74700900 	j	0x81c02401                                       ; Jump or subroutine call
81c01218:	afa00030 	sw	zero,48(sp)                                     ; Memory Access: Memory read/write operation
81c0121c:	8fa20040 	lw	v0,64(sp)                                     ; Memory Access: Memory read/write operation
81c01220:	00000000 	nop                                     ; Execution delay slot placeholder / No Operation
81c01224:	ac400000 	sw	zero,0(v0)                                     ; Memory Access: Memory read/write operation
81c01228:	ac400014 	sw	zero,20(v0)                                     ; Memory Access: Memory read/write operation
81c0122c:	3c1b0040 	lui	k1,0x40                                     ; Load upper immediate (setup 16-bit hardware base)
81c01230:	377bc001 	ori	k1,k1,0xc001                                      ; Bitwise isolation/masking operation
81c01234:	40806800 	mtc0	zero,$13                                   ; Coprocessor 0: Exception Cause Register access
81c01238:	00000000 	nop                                     ; Execution delay slot placeholder / No Operation
81c0123c:	409b6000 	mtc0	k1,$12                                   ; Coprocessor 0: Status Register (Interrupt bounds) access
81c01240:	747001aa 	j	0x81c006a9                                       ; Jump or subroutine call
81c01244:	241b0001 	li	k1,1                                      ; Load Immediate pseudo-instruction
81c01248:	74700c79 	j	0x81c031e5                                       ; Jump or subroutine call
81c0124c:	00402021 	move	a0,v0                                    ; Move register value
81c01250:	0c700428 	j	0x81c010a0                                       ; Jump or subroutine call
81c01254:	00000000 	nop                                     ; Execution delay slot placeholder / No Operation
81c01258:	14400021 	b	v0,0x81c012e0                                       ; Branch: evaluate condition and jump (error state fallback/looping)
81c0125c:	3c1881c0 	lui	t8,0x81c0                                     ; Load upper immediate (setup 16-bit hardware base)
81c01260:	74780b21 	j	0x81e02c85                                       ; Jump or subroutine call
81c01264:	240400c0 	li	a0,192                                      ; Load Immediate pseudo-instruction
81c01268:	747007f2 	j	0x81c01fc9                                       ; Jump or subroutine call
81c0126c:	24040001 	li	a0,1                                      ; Load Immediate pseudo-instruction
81c01270:	74700e54 	j	0x81c03951                                       ; Jump or subroutine call
81c01274:	00002021 	move	a0,zero                                    ; Move register value
81c01278:	747002c4 	j	0x81c00b11                                       ; Jump or subroutine call
81c0127c:	34048000 	li	a0,0x8000                                      ; Load Immediate pseudo-instruction
81c01280:	74700e54 	j	0x81c03951                                       ; Jump or subroutine call
81c01284:	24040001 	li	a0,1                                      ; Load Immediate pseudo-instruction
81c01288:	747002c4 	j	0x81c00b11                                       ; Jump or subroutine call
81c0128c:	2404000a 	li	a0,10                                      ; Load Immediate pseudo-instruction
81c01290:	747007f2 	j	0x81c01fc9                                       ; Jump or subroutine call
81c01294:	00002021 	move	a0,zero                                    ; Move register value
81c01298:	747002c4 	j	0x81c00b11                                       ; Jump or subroutine call
81c0129c:	2404000a 	li	a0,10                                      ; Load Immediate pseudo-instruction
81c012a0:	747001aa 	j	0x81c006a9                                       ; Jump or subroutine call
81c012a4:	00000000 	nop                                     ; Execution delay slot placeholder / No Operation
81c012a8:	74700c79 	j	0x81c031e5                                       ; Jump or subroutine call
81c012ac:	00402021 	move	a0,v0                                    ; Move register value
81c012b0:	747001ba 	j	0x81c006e9                                       ; Jump or subroutine call
81c012b4:	00000000 	nop                                     ; Execution delay slot placeholder / No Operation
81c012b8:	747002ca 	j	0x81c00b29                                       ; Jump or subroutine call
81c012bc:	00402021 	move	a0,v0                                    ; Move register value
81c012c0:	0c700428 	j	0x81c010a0                                       ; Jump or subroutine call
81c012c4:	00000000 	nop                                     ; Execution delay slot placeholder / No Operation
81c012c8:	14400005 	b	v0,0x81c012e0                                       ; Branch: evaluate condition and jump (error state fallback/looping)
81c012cc:	3c1881c0 	lui	t8,0x81c0                                     ; Load upper immediate (setup 16-bit hardware base)
81c012d0:	74780b21 	j	0x81e02c85                                       ; Jump or subroutine call
81c012d4:	240400ce 	li	a0,206                                      ; Load Immediate pseudo-instruction
81c012d8:	087004b6 	j	0x81c012d8                                       ; Jump or subroutine call
81c012dc:	00000000 	nop                                     ; Execution delay slot placeholder / No Operation
81c012e0:	3c1181c0 	lui	s1,0x81c0                                     ; Load upper immediate (setup 16-bit hardware base)
81c012e4:	27055940 	addiu	a1,t8,22848                                     ; Math operation on registers
81c012e8:	26265950 	addiu	a2,s1,22864                                     ; Math operation on registers
81c012ec:	74700753 	j	0x81c01d4d                                       ; Jump or subroutine call
81c012f0:	24040014 	li	a0,20                                      ; Load Immediate pseudo-instruction
81c012f4:	3c0a81c0 	lui	t2,0x81c0                                     ; Load upper immediate (setup 16-bit hardware base)
81c012f8:	25445dc4 	addiu	a0,t2,24004                                     ; Math operation on registers
81c012fc:	00002821 	move	a1,zero                                    ; Move register value
81c01300:	00003021 	move	a2,zero                                    ; Move register value
81c01304:	24100001 	li	s0,1                                      ; Load Immediate pseudo-instruction
81c01308:	74780c89 	j	0x81e03225                                       ; Jump or subroutine call
81c0130c:	ad505dc4 	sw	s0,24004(t2)                                     ; Memory Access: Memory read/write operation
81c01310:	74780b21 	j	0x81e02c85                                       ; Jump or subroutine call
81c01314:	240400f0 	li	a0,240                                      ; Load Immediate pseudo-instruction
81c01318:	74701263 	j	0x81c0498d                                       ; Jump or subroutine call
81c0131c:	00008821 	move	s1,zero                                    ; Move register value
81c01320:	74780b21 	j	0x81e02c85                                       ; Jump or subroutine call
81c01324:	00402021 	move	a0,v0                                    ; Move register value
81c01328:	afa0003c 	sw	zero,60(sp)                                     ; Memory Access: Memory read/write operation
81c0132c:	afa00038 	sw	zero,56(sp)                                     ; Memory Access: Memory read/write operation
81c01330:	8fbf0040 	lw	ra,64(sp)                                     ; Memory Access: Memory read/write operation
81c01334:	24190014 	li	t9,20                                      ; Load Immediate pseudo-instruction
81c01338:	03e00013 	mtlo	ra
81c0133c:	24040008 	li	a0,8                                      ; Load Immediate pseudo-instruction
81c01340:	24030002 	li	v1,2                                      ; Load Immediate pseudo-instruction
81c01344:	0239001c 	dmult	s1,t9
81c01348:	00008012 	mflo	s0
81c0134c:	afa30058 	sw	v1,88(sp)                                     ; Memory Access: Memory read/write operation
81c01350:	74780c45 	j	0x81e03115                                       ; Jump or subroutine call
81c01354:	afa40044 	sw	a0,68(sp)                                     ; Memory Access: Memory read/write operation
81c01358:	74780aca 	j	0x81e02b29                                       ; Jump or subroutine call
81c0135c:	00000000 	nop                                     ; Execution delay slot placeholder / No Operation
81c01360:	8e020000 	lw	v0,0(s0)                                     ; Memory Access: Memory read/write operation
81c01364:	24070005 	li	a3,5                                      ; Load Immediate pseudo-instruction
81c01368:	8fa30058 	lw	v1,88(sp)                                     ; Memory Access: Memory read/write operation
81c0136c:	8fa40044 	lw	a0,68(sp)                                     ; Memory Access: Memory read/write operation
81c01370:	104700b1 	b	v0,a3,0x81c01638                                       ; Branch: evaluate condition and jump (error state fallback/looping)
81c01374:	2c450006 	sltiu	a1,v0,6
81c01378:	10a00014 	b	a1,0x81c013cc                                       ; Branch: evaluate condition and jump (error state fallback/looping)
81c0137c:	00000000 	nop                                     ; Execution delay slot placeholder / No Operation
81c01380:	10430083 	b	v0,v1,0x81c01590                                       ; Branch: evaluate condition and jump (error state fallback/looping)
81c01384:	2c450003 	sltiu	a1,v0,3
81c01388:	10a00008 	b	a1,0x81c013ac                                       ; Branch: evaluate condition and jump (error state fallback/looping)
81c0138c:	00000000 	nop                                     ; Execution delay slot placeholder / No Operation
81c01390:	1040ffee 	b	v0,0x81c0134c                                       ; Branch: evaluate condition and jump (error state fallback/looping)
81c01394:	00000000 	nop                                     ; Execution delay slot placeholder / No Operation
81c01398:	24030001 	li	v1,1                                      ; Load Immediate pseudo-instruction
81c0139c:	14430166 	b	v0,v1,0x81c01938                                       ; Branch: evaluate condition and jump (error state fallback/looping)
81c013a0:	2418ff9d 	li	t8,-99                                      ; Load Immediate pseudo-instruction
81c013a4:	08700508 	j	0x81c01420                                       ; Jump or subroutine call
81c013a8:	00000000 	nop                                     ; Execution delay slot placeholder / No Operation
81c013ac:	24050003 	li	a1,3                                      ; Load Immediate pseudo-instruction
81c013b0:	104500e7 	b	v0,a1,0x81c01750                                       ; Branch: evaluate condition and jump (error state fallback/looping)
81c013b4:	2408ff9d 	li	t0,-99                                      ; Load Immediate pseudo-instruction
81c013b8:	24040004 	li	a0,4                                      ; Load Immediate pseudo-instruction
81c013bc:	1444015e 	b	v0,a0,0x81c01938                                       ; Branch: evaluate condition and jump (error state fallback/looping)
81c013c0:	2418ff9d 	li	t8,-99                                      ; Load Immediate pseudo-instruction
81c013c4:	08700506 	j	0x81c01418                                       ; Jump or subroutine call
81c013c8:	27a30024 	addiu	v1,sp,36                                     ; Math operation on registers
81c013cc:	104400e3 	b	v0,a0,0x81c0175c                                       ; Branch: evaluate condition and jump (error state fallback/looping)
81c013d0:	2c460009 	sltiu	a2,v0,9
81c013d4:	24480064 	addiu	t0,v0,100                                     ; Math operation on registers
81c013d8:	10c00008 	b	a2,0x81c013fc                                       ; Branch: evaluate condition and jump (error state fallback/looping)
81c013dc:	2d050004 	sltiu	a1,t0,4
81c013e0:	24060006 	li	a2,6                                      ; Load Immediate pseudo-instruction
81c013e4:	10460009 	b	v0,a2,0x81c0140c                                       ; Branch: evaluate condition and jump (error state fallback/looping)
81c013e8:	24090007 	li	t1,7                                      ; Load Immediate pseudo-instruction
81c013ec:	14490152 	b	v0,t1,0x81c01938                                       ; Branch: evaluate condition and jump (error state fallback/looping)
81c013f0:	2418ff9d 	li	t8,-99                                      ; Load Immediate pseudo-instruction
81c013f4:	08700643 	j	0x81c0190c                                       ; Jump or subroutine call
81c013f8:	241fff9c 	li	ra,-100                                      ; Load Immediate pseudo-instruction
81c013fc:	10a0014e 	b	a1,0x81c01938                                       ; Branch: evaluate condition and jump (error state fallback/looping)
81c01400:	2418ff9d 	li	t8,-99                                      ; Load Immediate pseudo-instruction
81c01404:	087004d4 	j	0x81c01350                                       ; Jump or subroutine call
81c01408:	afa30058 	sw	v1,88(sp)                                     ; Memory Access: Memory read/write operation
81c0140c:	27a20028 	addiu	v0,sp,40                                     ; Math operation on registers
81c01410:	08700572 	j	0x81c015c8                                       ; Jump or subroutine call
81c01414:	00001821 	move	v1,zero                                    ; Move register value
81c01418:	0870062d 	j	0x81c018b4                                       ; Jump or subroutine call
81c0141c:	00004021 	move	t0,zero                                    ; Move register value
81c01420:	8e020010 	lw	v0,16(s0)                                     ; Memory Access: Memory read/write operation
81c01424:	00000000 	nop                                     ; Execution delay slot placeholder / No Operation
81c01428:	04410031 	b	v0,0x81c014f0                                       ; Branch: evaluate condition and jump (error state fallback/looping)
81c0142c:	00000000 	nop                                     ; Execution delay slot placeholder / No Operation
81c01430:	8e0a0008 	lw	t2,8(s0)                                     ; Memory Access: Memory read/write operation
81c01434:	27a40018 	addiu	a0,sp,24                                     ; Math operation on registers
81c01438:	afaa0018 	sw	t2,24(sp)                                     ; Memory Access: Memory read/write operation
81c0143c:	8e1f000c 	lw	ra,12(s0)                                     ; Memory Access: Memory read/write operation
81c01440:	afa00020 	sw	zero,32(sp)                                     ; Memory Access: Memory read/write operation
81c01444:	a7bf001c 	sh	ra,28(sp)                                     ; Memory Access: Memory read/write operation
81c01448:	7470070b 	j	0x81c01c2d                                       ; Jump or subroutine call
81c0144c:	00000000 	nop                                     ; Execution delay slot placeholder / No Operation
81c01450:	747006e1 	j	0x81c01b85                                       ; Jump or subroutine call
81c01454:	27a40010 	addiu	a0,sp,16                                     ; Math operation on registers
81c01458:	93a20010 	lbu	v0,16(sp)                                     ; Memory Access: Memory read/write operation
81c0145c:	93a90011 	lbu	t1,17(sp)                                     ; Memory Access: Memory read/write operation
81c01460:	00022c00 	sll	a1,v0,0x10
81c01464:	00093200 	sll	a2,t1,0x8
81c01468:	8e190010 	lw	t9,16(s0)                                     ; Memory Access: Memory read/write operation
81c0146c:	93a40012 	lbu	a0,18(sp)                                     ; Memory Access: Memory read/write operation
81c01470:	3c0300ff 	lui	v1,0xff                                     ; Load upper immediate (setup 16-bit hardware base)
81c01474:	00a64025 	or	t0,a1,a2                                      ; Bitwise isolation/masking operation
81c01478:	3467ffff 	ori	a3,v1,0xffff                                      ; Bitwise isolation/masking operation
81c0147c:	01045025 	or	t2,t0,a0                                      ; Bitwise isolation/masking operation
81c01480:	0327c024 	and	t8,t9,a3                                     ; Bitwise isolation/masking operation
81c01484:	130a0003 	b	t8,t2,0x81c01494                                       ; Branch: evaluate condition and jump (error state fallback/looping)
81c01488:	00000000 	nop                                     ; Execution delay slot placeholder / No Operation
81c0148c:	0870054d 	j	0x81c01534                                       ; Jump or subroutine call
81c01490:	2402ff9e 	li	v0,-98                                      ; Load Immediate pseudo-instruction
81c01494:	8e040004 	lw	a0,4(s0)                                     ; Memory Access: Memory read/write operation
81c01498:	74700bdb 	j	0x81c02f6d                                       ; Jump or subroutine call
81c0149c:	00000000 	nop                                     ; Execution delay slot placeholder / No Operation
81c014a0:	3c182000 	lui	t8,0x2000                                     ; Load upper immediate (setup 16-bit hardware base)
81c014a4:	00581025 	or	v0,v0,t8                                      ; Bitwise isolation/masking operation
81c014a8:	00002821 	move	a1,zero                                    ; Move register value
81c014ac:	00002021 	move	a0,zero                                    ; Move register value
81c014b0:	2407ffff 	li	a3,-1                                      ; Load Immediate pseudo-instruction
81c014b4:	08700535 	j	0x81c014d4                                       ; Jump or subroutine call
81c014b8:	2406ff9f 	li	a2,-97                                      ; Load Immediate pseudo-instruction
81c014bc:	8d190000 	lw	t9,0(t0)                                     ; Memory Access: Memory read/write operation
81c014c0:	00000000 	nop                                     ; Execution delay slot placeholder / No Operation
81c014c4:	13270003 	b	t9,a3,0x81c014d4                                       ; Branch: evaluate condition and jump (error state fallback/looping)
81c014c8:	24840004 	addiu	a0,a0,4                                     ; Math operation on registers
81c014cc:	ae060000 	sw	a2,0(s0)                                     ; Memory Access: Memory read/write operation
81c014d0:	24050001 	li	a1,1                                      ; Load Immediate pseudo-instruction
81c014d4:	8e09000c 	lw	t1,12(s0)                                     ; Memory Access: Memory read/write operation
81c014d8:	00000000 	nop                                     ; Execution delay slot placeholder / No Operation
81c014dc:	0089182b 	sltu	v1,a0,t1                                    ; Set on Less Than (bounds validation evaluation)
81c014e0:	1460fff6 	b	v1,0x81c014bc                                       ; Branch: evaluate condition and jump (error state fallback/looping)
81c014e4:	00824021 	addu	t0,a0,v0                                     ; Math operation on registers
81c014e8:	14a00023 	b	a1,0x81c01578                                       ; Branch: evaluate condition and jump (error state fallback/looping)
81c014ec:	00000000 	nop                                     ; Execution delay slot placeholder / No Operation
81c014f0:	8e040004 	lw	a0,4(s0)                                     ; Memory Access: Memory read/write operation
81c014f4:	8e05000c 	lw	a1,12(s0)                                     ; Memory Access: Memory read/write operation
81c014f8:	8e070008 	lw	a3,8(s0)                                     ; Memory Access: Memory read/write operation
81c014fc:	74700b5a 	j	0x81c02d69                                       ; Jump or subroutine call
81c01500:	27a60014 	addiu	a2,sp,20                                     ; Math operation on registers
81c01504:	8fa80014 	lw	t0,20(sp)                                     ; Memory Access: Memory read/write operation
81c01508:	afa20038 	sw	v0,56(sp)                                     ; Memory Access: Memory read/write operation
81c0150c:	ae08000c 	sw	t0,12(s0)                                     ; Memory Access: Memory read/write operation
81c01510:	8fa70038 	lw	a3,56(sp)                                     ; Memory Access: Memory read/write operation
81c01514:	00000000 	nop                                     ; Execution delay slot placeholder / No Operation
81c01518:	14e00006 	b	a3,0x81c01534                                       ; Branch: evaluate condition and jump (error state fallback/looping)
81c0151c:	2402ff9d 	li	v0,-99                                      ; Load Immediate pseudo-instruction
81c01520:	27a20028 	addiu	v0,sp,40                                     ; Math operation on registers
81c01524:	00001821 	move	v1,zero                                    ; Move register value
81c01528:	8fa5003c 	lw	a1,60(sp)                                     ; Memory Access: Memory read/write operation
81c0152c:	08700558 	j	0x81c01560                                       ; Jump or subroutine call
81c01530:	24040001 	li	a0,1                                      ; Load Immediate pseudo-instruction
81c01534:	ae020000 	sw	v0,0(s0)                                     ; Memory Access: Memory read/write operation
81c01538:	0870055e 	j	0x81c01578                                       ; Jump or subroutine call
81c0153c:	00000000 	nop                                     ; Execution delay slot placeholder / No Operation
81c01540:	8c46fffc 	lw	a2,-4(v0)                                     ; Memory Access: Memory read/write operation
81c01544:	8e1f0004 	lw	ra,4(s0)                                     ; Memory Access: Memory read/write operation
81c01548:	00000000 	nop                                     ; Execution delay slot placeholder / No Operation
81c0154c:	17e60003 	b	ra,a2,0x81c0155c                                       ; Branch: evaluate condition and jump (error state fallback/looping)
81c01550:	24420008 	addiu	v0,v0,8                                     ; Math operation on registers
81c01554:	00645004 	sllv	t2,a0,v1
81c01558:	00aa2825 	or	a1,a1,t2                                      ; Bitwise isolation/masking operation
81c0155c:	24630001 	addiu	v1,v1,1                                     ; Math operation on registers
81c01560:	8c580000 	lw	t8,0(v0)                                     ; Memory Access: Memory read/write operation
81c01564:	00000000 	nop                                     ; Execution delay slot placeholder / No Operation
81c01568:	1700fff5 	b	t8,0x81c01540                                       ; Branch: evaluate condition and jump (error state fallback/looping)
81c0156c:	00000000 	nop                                     ; Execution delay slot placeholder / No Operation
81c01570:	08700587 	j	0x81c0161c                                       ; Jump or subroutine call
81c01574:	afa5003c 	sw	a1,60(sp)                                     ; Memory Access: Memory read/write operation
81c01578:	74780b21 	j	0x81e02c85                                       ; Jump or subroutine call
81c0157c:	262400e0 	addiu	a0,s1,224                                     ; Math operation on registers
81c01580:	8fa50038 	lw	a1,56(sp)                                     ; Memory Access: Memory read/write operation
81c01584:	3c100ef0 	lui	s0,0xef0                                     ; Load upper immediate (setup 16-bit hardware base)
81c01588:	08700652 	j	0x81c01948                                       ; Jump or subroutine call
81c0158c:	02052023 	subu	a0,s0,a1                                     ; Math operation on registers
81c01590:	8e040004 	lw	a0,4(s0)                                     ; Memory Access: Memory read/write operation
81c01594:	74700ba7 	j	0x81c02e9d                                       ; Jump or subroutine call
81c01598:	00002821 	move	a1,zero                                    ; Move register value
81c0159c:	1040001f 	b	v0,0x81c0161c                                       ; Branch: evaluate condition and jump (error state fallback/looping)
81c015a0:	afa20038 	sw	v0,56(sp)                                     ; Memory Access: Memory read/write operation
81c015a4:	2419ff9d 	li	t9,-99                                      ; Load Immediate pseudo-instruction
81c015a8:	262400e0 	addiu	a0,s1,224                                     ; Math operation on registers
81c015ac:	74780b21 	j	0x81e02c85                                       ; Jump or subroutine call
81c015b0:	ae190000 	sw	t9,0(s0)                                     ; Memory Access: Memory read/write operation
81c015b4:	8fa20038 	lw	v0,56(sp)                                     ; Memory Access: Memory read/write operation
81c015b8:	3c040ee0 	lui	a0,0xee0                                     ; Load upper immediate (setup 16-bit hardware base)
81c015bc:	08700652 	j	0x81c01948                                       ; Jump or subroutine call
81c015c0:	00822023 	subu	a0,a0,v0                                     ; Math operation on registers
81c015c4:	24630001 	addiu	v1,v1,1                                     ; Math operation on registers
81c015c8:	8c490000 	lw	t1,0(v0)                                     ; Memory Access: Memory read/write operation
81c015cc:	00000000 	nop                                     ; Execution delay slot placeholder / No Operation
81c015d0:	1520fffc 	b	t1,0x81c015c4                                       ; Branch: evaluate condition and jump (error state fallback/looping)
81c015d4:	24420008 	addiu	v0,v0,8                                     ; Math operation on registers
81c015d8:	8e060008 	lw	a2,8(s0)                                     ; Memory Access: Memory read/write operation
81c015dc:	3c082000 	lui	t0,0x2000                                     ; Load upper immediate (setup 16-bit hardware base)
81c015e0:	00c81025 	or	v0,a2,t0                                      ; Bitwise isolation/masking operation
81c015e4:	000338c0 	sll	a3,v1,0x3
81c015e8:	00e22821 	addu	a1,a3,v0                                     ; Math operation on registers
81c015ec:	08700584 	j	0x81c01610                                       ; Jump or subroutine call
81c015f0:	27a40024 	addiu	a0,sp,36                                     ; Math operation on registers
81c015f4:	8c8a0000 	lw	t2,0(a0)                                     ; Memory Access: Memory read/write operation
81c015f8:	00000000 	nop                                     ; Execution delay slot placeholder / No Operation
81c015fc:	ac4a0000 	sw	t2,0(v0)                                     ; Memory Access: Memory read/write operation
81c01600:	8c9f0004 	lw	ra,4(a0)                                     ; Memory Access: Memory read/write operation
81c01604:	24840008 	addiu	a0,a0,8                                     ; Math operation on registers
81c01608:	ac5f0004 	sw	ra,4(v0)                                     ; Memory Access: Memory read/write operation
81c0160c:	24420008 	addiu	v0,v0,8                                     ; Math operation on registers
81c01610:	1445fff8 	b	v0,a1,0x81c015f4                                       ; Branch: evaluate condition and jump (error state fallback/looping)
81c01614:	00000000 	nop                                     ; Execution delay slot placeholder / No Operation
81c01618:	ae03000c 	sw	v1,12(s0)                                     ; Memory Access: Memory read/write operation
81c0161c:	2403ff9c 	li	v1,-100                                      ; Load Immediate pseudo-instruction
81c01620:	262400f0 	addiu	a0,s1,240                                     ; Math operation on registers
81c01624:	ae030000 	sw	v1,0(s0)                                     ; Memory Access: Memory read/write operation
81c01628:	74780b21 	j	0x81e02c85                                       ; Jump or subroutine call
81c0162c:	3a310001 	xori	s1,s1,0x1                                     ; Bitwise isolation/masking operation
81c01630:	087004cc 	j	0x81c01330                                       ; Jump or subroutine call
81c01634:	00000000 	nop                                     ; Execution delay slot placeholder / No Operation
81c01638:	afa00014 	sw	zero,20(sp)                                     ; Memory Access: Memory read/write operation
81c0163c:	8e020008 	lw	v0,8(s0)                                     ; Memory Access: Memory read/write operation
81c01640:	8e090008 	lw	t1,8(s0)                                     ; Memory Access: Memory read/write operation
81c01644:	8e190008 	lw	t9,8(s0)                                     ; Memory Access: Memory read/write operation
81c01648:	3c042000 	lui	a0,0x2000                                     ; Load upper immediate (setup 16-bit hardware base)
81c0164c:	25380004 	addiu	t8,t1,4                                     ; Math operation on registers
81c01650:	27250008 	addiu	a1,t9,8                                     ; Math operation on registers
81c01654:	00a42825 	or	a1,a1,a0                                      ; Bitwise isolation/masking operation
81c01658:	00443825 	or	a3,v0,a0                                      ; Bitwise isolation/masking operation
81c0165c:	03043025 	or	a2,t8,a0                                      ; Bitwise isolation/masking operation
81c01660:	2408ffff 	li	t0,-1                                      ; Load Immediate pseudo-instruction
81c01664:	00001821 	move	v1,zero                                    ; Move register value
81c01668:	087005c9 	j	0x81c01724                                       ; Jump or subroutine call
81c0166c:	2409ffff 	li	t1,-1                                      ; Load Immediate pseudo-instruction
81c01670:	8ce40000 	lw	a0,0(a3)                                     ; Memory Access: Memory read/write operation
81c01674:	afa30058 	sw	v1,88(sp)                                     ; Memory Access: Memory read/write operation
81c01678:	afa60050 	sw	a2,80(sp)                                     ; Memory Access: Memory read/write operation
81c0167c:	afa80054 	sw	t0,84(sp)                                     ; Memory Access: Memory read/write operation
81c01680:	afbf0048 	sw	ra,72(sp)                                     ; Memory Access: Memory read/write operation
81c01684:	afa5004c 	sw	a1,76(sp)                                     ; Memory Access: Memory read/write operation
81c01688:	74700bdb 	j	0x81c02f6d                                       ; Jump or subroutine call
81c0168c:	afa90044 	sw	t1,68(sp)                                     ; Memory Access: Memory read/write operation
81c01690:	3c092000 	lui	t1,0x2000                                     ; Load upper immediate (setup 16-bit hardware base)
81c01694:	0049c825 	or	t9,v0,t1                                      ; Bitwise isolation/masking operation
81c01698:	8fa50050 	lw	a1,80(sp)                                     ; Memory Access: Memory read/write operation
81c0169c:	afb90018 	sw	t9,24(sp)                                     ; Memory Access: Memory read/write operation
81c016a0:	8ca20000 	lw	v0,0(a1)                                     ; Memory Access: Memory read/write operation
81c016a4:	27a40018 	addiu	a0,sp,24                                     ; Math operation on registers
81c016a8:	a7a2001c 	sh	v0,28(sp)                                     ; Memory Access: Memory read/write operation
81c016ac:	7470070b 	j	0x81c01c2d                                       ; Jump or subroutine call
81c016b0:	afa00020 	sw	zero,32(sp)                                     ; Memory Access: Memory read/write operation
81c016b4:	747006e1 	j	0x81c01b85                                       ; Jump or subroutine call
81c016b8:	27a40010 	addiu	a0,sp,16                                     ; Math operation on registers
81c016bc:	93a30011 	lbu	v1,17(sp)                                     ; Memory Access: Memory read/write operation
81c016c0:	93a40010 	lbu	a0,16(sp)                                     ; Memory Access: Memory read/write operation
81c016c4:	8fa5004c 	lw	a1,76(sp)                                     ; Memory Access: Memory read/write operation
81c016c8:	00033200 	sll	a2,v1,0x8
81c016cc:	93a80012 	lbu	t0,18(sp)                                     ; Memory Access: Memory read/write operation
81c016d0:	00045400 	sll	t2,a0,0x10
81c016d4:	01463825 	or	a3,t2,a2                                      ; Bitwise isolation/masking operation
81c016d8:	8cb80000 	lw	t8,0(a1)                                     ; Memory Access: Memory read/write operation
81c016dc:	00e81025 	or	v0,a3,t0                                      ; Bitwise isolation/masking operation
81c016e0:	8fa30058 	lw	v1,88(sp)                                     ; Memory Access: Memory read/write operation
81c016e4:	8fa60050 	lw	a2,80(sp)                                     ; Memory Access: Memory read/write operation
81c016e8:	8fa70048 	lw	a3,72(sp)                                     ; Memory Access: Memory read/write operation
81c016ec:	8fa80054 	lw	t0,84(sp)                                     ; Memory Access: Memory read/write operation
81c016f0:	8fa90044 	lw	t1,68(sp)                                     ; Memory Access: Memory read/write operation
81c016f4:	13020008 	b	t8,v0,0x81c01718                                       ; Branch: evaluate condition and jump (error state fallback/looping)
81c016f8:	00000000 	nop                                     ; Execution delay slot placeholder / No Operation
81c016fc:	8faa0014 	lw	t2,20(sp)                                     ; Memory Access: Memory read/write operation
81c01700:	00000000 	nop                                     ; Execution delay slot placeholder / No Operation
81c01704:	25580001 	addiu	t8,t2,1                                     ; Math operation on registers
81c01708:	afb80014 	sw	t8,20(sp)                                     ; Memory Access: Memory read/write operation
81c0170c:	15090002 	b	t0,t1,0x81c01718                                       ; Branch: evaluate condition and jump (error state fallback/looping)
81c01710:	aca20000 	sw	v0,0(a1)                                     ; Memory Access: Memory read/write operation
81c01714:	00604021 	move	t0,v1                                    ; Move register value
81c01718:	24c6000c 	addiu	a2,a2,12                                     ; Math operation on registers
81c0171c:	24a5000c 	addiu	a1,a1,12                                     ; Math operation on registers
81c01720:	24630001 	addiu	v1,v1,1                                     ; Math operation on registers
81c01724:	8e02000c 	lw	v0,12(s0)                                     ; Memory Access: Memory read/write operation
81c01728:	00000000 	nop                                     ; Execution delay slot placeholder / No Operation
81c0172c:	0062202b 	sltu	a0,v1,v0                                    ; Set on Less Than (bounds validation evaluation)
81c01730:	1480ffcf 	b	a0,0x81c01670                                       ; Branch: evaluate condition and jump (error state fallback/looping)
81c01734:	24ff000c 	addiu	ra,a3,12                                     ; Math operation on registers
81c01738:	8fa70014 	lw	a3,20(sp)                                     ; Memory Access: Memory read/write operation
81c0173c:	00000000 	nop                                     ; Execution delay slot placeholder / No Operation
81c01740:	10e0ffb7 	b	a3,0x81c01620                                       ; Branch: evaluate condition and jump (error state fallback/looping)
81c01744:	2403ff9c 	li	v1,-100                                      ; Load Immediate pseudo-instruction
81c01748:	ae080008 	sw	t0,8(s0)                                     ; Memory Access: Memory read/write operation
81c0174c:	2408ff9d 	li	t0,-99                                      ; Load Immediate pseudo-instruction
81c01750:	ae080000 	sw	t0,0(s0)                                     ; Memory Access: Memory read/write operation
81c01754:	08700610 	j	0x81c01840                                       ; Jump or subroutine call
81c01758:	262400e0 	addiu	a0,s1,224                                     ; Math operation on registers
81c0175c:	8e030004 	lw	v1,4(s0)                                     ; Memory Access: Memory read/write operation
81c01760:	3c068000 	lui	a2,0x8000                                     ; Load upper immediate (setup 16-bit hardware base)
81c01764:	00661025 	or	v0,v1,a2                                      ; Bitwise isolation/masking operation
81c01768:	afa20018 	sw	v0,24(sp)                                     ; Memory Access: Memory read/write operation
81c0176c:	90440002 	lbu	a0,2(v0)                                     ; Memory Access: Memory read/write operation
81c01770:	90480003 	lbu	t0,3(v0)                                     ; Memory Access: Memory read/write operation
81c01774:	00045400 	sll	t2,a0,0x10
81c01778:	00083e00 	sll	a3,t0,0x18
81c0177c:	90490001 	lbu	t1,1(v0)                                     ; Memory Access: Memory read/write operation
81c01780:	90580000 	lbu	t8,0(v0)                                     ; Memory Access: Memory read/write operation
81c01784:	00eaf825 	or	ra,a3,t2                                      ; Bitwise isolation/masking operation
81c01788:	03f82825 	or	a1,ra,t8                                      ; Bitwise isolation/masking operation
81c0178c:	0009ca00 	sll	t9,t1,0x8
81c01790:	7470028d 	j	0x81c00a35                                       ; Jump or subroutine call
81c01794:	00b92025 	or	a0,a1,t9                                      ; Bitwise isolation/masking operation
81c01798:	8fa20018 	lw	v0,24(sp)                                     ; Memory Access: Memory read/write operation
81c0179c:	240600ca 	li	a2,202                                      ; Load Immediate pseudo-instruction
81c017a0:	90430003 	lbu	v1,3(v0)                                     ; Memory Access: Memory read/write operation
81c017a4:	00000000 	nop                                     ; Execution delay slot placeholder / No Operation
81c017a8:	14660023 	b	v1,a2,0x81c01838                                       ; Branch: evaluate condition and jump (error state fallback/looping)
81c017ac:	2409ff9c 	li	t1,-100                                      ; Load Immediate pseudo-instruction
81c017b0:	90590002 	lbu	t9,2(v0)                                     ; Memory Access: Memory read/write operation
81c017b4:	2405001b 	li	a1,27                                      ; Load Immediate pseudo-instruction
81c017b8:	1725001f 	b	t9,a1,0x81c01838                                       ; Branch: evaluate condition and jump (error state fallback/looping)
81c017bc:	00000000 	nop                                     ; Execution delay slot placeholder / No Operation
81c017c0:	90470001 	lbu	a3,1(v0)                                     ; Memory Access: Memory read/write operation
81c017c4:	904a0000 	lbu	t2,0(v0)                                     ; Memory Access: Memory read/write operation
81c017c8:	0007c200 	sll	t8,a3,0x8
81c017cc:	030af825 	or	ra,t8,t2                                      ; Bitwise isolation/masking operation
81c017d0:	2be90204 	slti	t1,ra,516
81c017d4:	1520ff92 	b	t1,0x81c01620                                       ; Branch: evaluate condition and jump (error state fallback/looping)
81c017d8:	2403ff9c 	li	v1,-100                                      ; Load Immediate pseudo-instruction
81c017dc:	27a40018 	addiu	a0,sp,24                                     ; Math operation on registers
81c017e0:	24021360 	li	v0,4960                                      ; Load Immediate pseudo-instruction
81c017e4:	a7a2001c 	sh	v0,28(sp)                                     ; Memory Access: Memory read/write operation
81c017e8:	7470070b 	j	0x81c01c2d                                       ; Jump or subroutine call
81c017ec:	afa00020 	sw	zero,32(sp)                                     ; Memory Access: Memory read/write operation
81c017f0:	747006e1 	j	0x81c01b85                                       ; Jump or subroutine call
81c017f4:	27a40010 	addiu	a0,sp,16                                     ; Math operation on registers
81c017f8:	8fa20018 	lw	v0,24(sp)                                     ; Memory Access: Memory read/write operation
81c017fc:	93a40010 	lbu	a0,16(sp)                                     ; Memory Access: Memory read/write operation
81c01800:	90481cf8 	lbu	t0,7416(v0)                                     ; Memory Access: Memory read/write operation
81c01804:	00000000 	nop                                     ; Execution delay slot placeholder / No Operation
81c01808:	1488000b 	b	a0,t0,0x81c01838                                       ; Branch: evaluate condition and jump (error state fallback/looping)
81c0180c:	2409ff9c 	li	t1,-100                                      ; Load Immediate pseudo-instruction
81c01810:	93a30011 	lbu	v1,17(sp)                                     ; Memory Access: Memory read/write operation
81c01814:	90461cf9 	lbu	a2,7417(v0)                                     ; Memory Access: Memory read/write operation
81c01818:	00000000 	nop                                     ; Execution delay slot placeholder / No Operation
81c0181c:	14660006 	b	v1,a2,0x81c01838                                       ; Branch: evaluate condition and jump (error state fallback/looping)
81c01820:	00000000 	nop                                     ; Execution delay slot placeholder / No Operation
81c01824:	90451cfa 	lbu	a1,7418(v0)                                     ; Memory Access: Memory read/write operation
81c01828:	93b90012 	lbu	t9,18(sp)                                     ; Memory Access: Memory read/write operation
81c0182c:	00000000 	nop                                     ; Execution delay slot placeholder / No Operation
81c01830:	1325ff7b 	b	t9,a1,0x81c01620                                       ; Branch: evaluate condition and jump (error state fallback/looping)
81c01834:	2403ff9c 	li	v1,-100                                      ; Load Immediate pseudo-instruction
81c01838:	ae090000 	sw	t1,0(s0)                                     ; Memory Access: Memory read/write operation
81c0183c:	262400b0 	addiu	a0,s1,176                                     ; Math operation on registers
81c01840:	74780b21 	j	0x81e02c85                                       ; Jump or subroutine call
81c01844:	00000000 	nop                                     ; Execution delay slot placeholder / No Operation
81c01848:	087004cc 	j	0x81c01330                                       ; Jump or subroutine call
81c0184c:	00000000 	nop                                     ; Execution delay slot placeholder / No Operation
81c01850:	10800016 	b	a0,0x81c018ac                                       ; Branch: evaluate condition and jump (error state fallback/looping)
81c01854:	0008c0c0 	sll	t8,t0,0x3
81c01858:	27aa0024 	addiu	t2,sp,36                                     ; Math operation on registers
81c0185c:	8c640000 	lw	a0,0(v1)                                     ; Memory Access: Memory read/write operation
81c01860:	0158f821 	addu	ra,t2,t8                                     ; Math operation on registers
81c01864:	27e70004 	addiu	a3,ra,4                                     ; Math operation on registers
81c01868:	24050004 	li	a1,4                                      ; Load Immediate pseudo-instruction
81c0186c:	27a60014 	addiu	a2,sp,20                                     ; Math operation on registers
81c01870:	afa30058 	sw	v1,88(sp)                                     ; Memory Access: Memory read/write operation
81c01874:	74700b5a 	j	0x81c02d69                                       ; Jump or subroutine call
81c01878:	afa80054 	sw	t0,84(sp)                                     ; Memory Access: Memory read/write operation
81c0187c:	8fa30058 	lw	v1,88(sp)                                     ; Memory Access: Memory read/write operation
81c01880:	14400017 	b	v0,0x81c018e0                                       ; Branch: evaluate condition and jump (error state fallback/looping)
81c01884:	00000000 	nop                                     ; Execution delay slot placeholder / No Operation
81c01888:	8c640000 	lw	a0,0(v1)                                     ; Memory Access: Memory read/write operation
81c0188c:	74700bdb 	j	0x81c02f6d                                       ; Jump or subroutine call
81c01890:	00000000 	nop                                     ; Execution delay slot placeholder / No Operation
81c01894:	8fa30058 	lw	v1,88(sp)                                     ; Memory Access: Memory read/write operation
81c01898:	8c440000 	lw	a0,0(v0)                                     ; Memory Access: Memory read/write operation
81c0189c:	8c670004 	lw	a3,4(v1)                                     ; Memory Access: Memory read/write operation
81c018a0:	8fa80054 	lw	t0,84(sp)                                     ; Memory Access: Memory read/write operation
81c018a4:	1487000b 	b	a0,a3,0x81c018d4                                       ; Branch: evaluate condition and jump (error state fallback/looping)
81c018a8:	00000000 	nop                                     ; Execution delay slot placeholder / No Operation
81c018ac:	25080001 	addiu	t0,t0,1                                     ; Math operation on registers
81c018b0:	24630008 	addiu	v1,v1,8                                     ; Math operation on registers
81c018b4:	8fa6003c 	lw	a2,60(sp)                                     ; Memory Access: Memory read/write operation
81c018b8:	24190001 	li	t9,1                                      ; Load Immediate pseudo-instruction
81c018bc:	01192804 	sllv	a1,t9,t0
81c018c0:	01061006 	srlv	v0,a2,t0
81c018c4:	1440ffe2 	b	v0,0x81c01850                                       ; Branch: evaluate condition and jump (error state fallback/looping)
81c018c8:	00a62024 	and	a0,a1,a2                                     ; Bitwise isolation/masking operation
81c018cc:	08700656 	j	0x81c01958                                       ; Jump or subroutine call
81c018d0:	240aff9c 	li	t2,-100                                      ; Load Immediate pseudo-instruction
81c018d4:	2408ff81 	li	t0,-127                                      ; Load Immediate pseudo-instruction
81c018d8:	08700639 	j	0x81c018e4                                       ; Jump or subroutine call
81c018dc:	afa80038 	sw	t0,56(sp)                                     ; Memory Access: Memory read/write operation
81c018e0:	afa20038 	sw	v0,56(sp)                                     ; Memory Access: Memory read/write operation
81c018e4:	2409ff9d 	li	t1,-99                                      ; Load Immediate pseudo-instruction
81c018e8:	ae090000 	sw	t1,0(s0)                                     ; Memory Access: Memory read/write operation
81c018ec:	74780b21 	j	0x81e02c85                                       ; Jump or subroutine call
81c018f0:	262400e0 	addiu	a0,s1,224                                     ; Math operation on registers
81c018f4:	8fa30038 	lw	v1,56(sp)                                     ; Memory Access: Memory read/write operation
81c018f8:	3c100ef0 	lui	s0,0xef0                                     ; Load upper immediate (setup 16-bit hardware base)
81c018fc:	7470028d 	j	0x81c00a35                                       ; Jump or subroutine call
81c01900:	02032023 	subu	a0,s0,v1                                     ; Math operation on registers
81c01904:	087004cc 	j	0x81c01330                                       ; Jump or subroutine call
81c01908:	afa0003c 	sw	zero,60(sp)                                     ; Memory Access: Memory read/write operation
81c0190c:	ae1f0000 	sw	ra,0(s0)                                     ; Memory Access: Memory read/write operation
81c01910:	74780b21 	j	0x81e02c85                                       ; Jump or subroutine call
81c01914:	262400f0 	addiu	a0,s1,240                                     ; Math operation on registers
81c01918:	74700741 	j	0x81c01d05                                       ; Jump or subroutine call
81c0191c:	00000000 	nop                                     ; Execution delay slot placeholder / No Operation
81c01920:	747002c4 	j	0x81c00b11                                       ; Jump or subroutine call
81c01924:	24040003 	li	a0,3                                      ; Load Immediate pseudo-instruction
81c01928:	7470041a 	j	0x81c01069                                       ; Jump or subroutine call
81c0192c:	00000000 	nop                                     ; Execution delay slot placeholder / No Operation
81c01930:	087004cc 	j	0x81c01330                                       ; Jump or subroutine call
81c01934:	00000000 	nop                                     ; Execution delay slot placeholder / No Operation
81c01938:	262400d0 	addiu	a0,s1,208                                     ; Math operation on registers
81c0193c:	74780b21 	j	0x81e02c85                                       ; Jump or subroutine call
81c01940:	ae180000 	sw	t8,0(s0)                                     ; Memory Access: Memory read/write operation
81c01944:	3c040eee 	lui	a0,0xeee                                     ; Load upper immediate (setup 16-bit hardware base)
81c01948:	7470028d 	j	0x81c00a35                                       ; Jump or subroutine call
81c0194c:	00000000 	nop                                     ; Execution delay slot placeholder / No Operation
81c01950:	087004cc 	j	0x81c01330                                       ; Jump or subroutine call
81c01954:	00000000 	nop                                     ; Execution delay slot placeholder / No Operation
81c01958:	ae0a0000 	sw	t2,0(s0)                                     ; Memory Access: Memory read/write operation
81c0195c:	74780b21 	j	0x81e02c85                                       ; Jump or subroutine call
81c01960:	262400f0 	addiu	a0,s1,240                                     ; Math operation on registers
81c01964:	24040002 	li	a0,2                                      ; Load Immediate pseudo-instruction
81c01968:	74700e5c 	j	0x81c03971                                       ; Jump or subroutine call
81c0196c:	24050007 	li	a1,7                                      ; Load Immediate pseudo-instruction
81c01970:	24040001 	li	a0,1                                      ; Load Immediate pseudo-instruction
81c01974:	74700e5c 	j	0x81c03971                                       ; Jump or subroutine call
81c01978:	24050007 	li	a1,7                                      ; Load Immediate pseudo-instruction
81c0197c:	2404000b 	li	a0,11                                      ; Load Immediate pseudo-instruction
81c01980:	74700f4b 	j	0x81c03d2d                                       ; Jump or subroutine call
81c01984:	24050001 	li	a1,1                                      ; Load Immediate pseudo-instruction
81c01988:	3a310001 	xori	s1,s1,0x1                                     ; Bitwise isolation/masking operation
81c0198c:	afa0003c 	sw	zero,60(sp)                                     ; Memory Access: Memory read/write operation
81c01990:	087004cc 	j	0x81c01330                                       ; Jump or subroutine call
81c01994:	afa00038 	sw	zero,56(sp)                                     ; Memory Access: Memory read/write operation
81c01998:	6500e820 	daddiu	zero,t0,-6112
81c0199c:	6500e820 	daddiu	zero,t0,-6112
81c019a0:	6a00e820 	ldl	zero,-6112(s0)
81c019a4:	6500e820 	daddiu	zero,t0,-6112
81c019a8:	6a00e820 	ldl	zero,-6112(s0)
81c019ac:	6500e820 	daddiu	zero,t0,-6112
81c019b0:	6500e820 	daddiu	zero,t0,-6112
81c019b4:	6500e820 	daddiu	zero,t0,-6112
81c019b8:	6500e820 	daddiu	zero,t0,-6112
81c019bc:	6500e820 	daddiu	zero,t0,-6112
81c019c0:	6a01e820 	ldl	at,-6112(s0)
81c019c4:	6500e820 	daddiu	zero,t0,-6112
81c019c8:	6500e820 	daddiu	zero,t0,-6112
81c019cc:	6500e820 	daddiu	zero,t0,-6112
81c019d0:	6a1cf5c0 	ldl	gp,-2624(s0)
81c019d4:	6500e820 	daddiu	zero,t0,-6112
81c019d8:	e820b202 	swc2	$0,-19966(at)                                     ; Memory Access: Memory read/write operation
81c019dc:	65006500 	daddiu	zero,t0,25856
81c019e0:	81c05ac4 	lb	zero,23236(t6)                                     ; Memory Access: Memory read/write operation
81c019e4:	e820b202 	swc2	$0,-19966(at)                                     ; Memory Access: Memory read/write operation
81c019e8:	65006500 	daddiu	zero,t0,25856
81c019ec:	81c05ac4 	lb	zero,23236(t6)                                     ; Memory Access: Memory read/write operation
81c019f0:	6500e820 	daddiu	zero,t0,-6112
81c019f4:	6500e820 	daddiu	zero,t0,-6112
81c019f8:	6500e820 	daddiu	zero,t0,-6112
81c019fc:	6500e820 	daddiu	zero,t0,-6112
81c01a00:	6500e820 	daddiu	zero,t0,-6112
81c01a04:	6500e820 	daddiu	zero,t0,-6112
81c01a08:	6500e820 	daddiu	zero,t0,-6112
81c01a0c:	d602d501 	ldc1	$f2,-11007(s0)                                     ; Memory Access: Memory read/write operation
81c01a10:	d703e820 	ldc1	$f3,-6112(t8)                                     ; Memory Access: Memory read/write operation
81c01a14:	6500e820 	daddiu	zero,t0,-6112
81c01a18:	6500e820 	daddiu	zero,t0,-6112
81c01a1c:	6500e820 	daddiu	zero,t0,-6112
81c01a20:	6500e820 	daddiu	zero,t0,-6112
81c01a24:	6500e820 	daddiu	zero,t0,-6112
81c01a28:	6500e820 	daddiu	zero,t0,-6112
81c01a2c:	6500e820 	daddiu	zero,t0,-6112
81c01a30:	6500e820 	daddiu	zero,t0,-6112
81c01a34:	6500e820 	daddiu	zero,t0,-6112
81c01a38:	6500e820 	daddiu	zero,t0,-6112
81c01a3c:	6500e820 	daddiu	zero,t0,-6112
81c01a40:	6500e820 	daddiu	zero,t0,-6112
81c01a44:	6500e820 	daddiu	zero,t0,-6112
81c01a48:	6500e820 	daddiu	zero,t0,-6112
81c01a4c:	6500e820 	daddiu	zero,t0,-6112
81c01a50:	6500e820 	daddiu	zero,t0,-6112
81c01a54:	6500e820 	daddiu	zero,t0,-6112
81c01a58:	6500e820 	daddiu	zero,t0,-6112
81c01a5c:	6500e820 	daddiu	zero,t0,-6112
81c01a60:	6500e820 	daddiu	zero,t0,-6112
81c01a64:	e820b202 	swc2	$0,-19966(at)                                     ; Memory Access: Memory read/write operation
81c01a68:	65006500 	daddiu	zero,t0,25856
81c01a6c:	81c055cc 	lb	zero,21964(t6)                                     ; Memory Access: Memory read/write operation
81c01a70:	e820b202 	swc2	$0,-19966(at)                                     ; Memory Access: Memory read/write operation
81c01a74:	65006500 	daddiu	zero,t0,25856
81c01a78:	81c05648 	lb	zero,22088(t6)                                     ; Memory Access: Memory read/write operation
81c01a7c:	620563fd 	daddi	a1,s0,25597
81c01a80:	06931a03 	b	s4,0x81c08290                                       ; Branch: evaluate condition and jump (error state fallback/looping)
81c01a84:	1a036500 	0x1a036500
81c01a88:	65000694 	daddiu	zero,t0,1684
81c01a8c:	06951a03 	0x6951a03
81c01a90:	1a036500 	0x1a036500
81c01a94:	65000696 	daddiu	zero,t0,1686
81c01a98:	06971a03 	0x6971a03
81c01a9c:	1a036500 	0x1a036500
81c01aa0:	65000698 	daddiu	zero,t0,1688
81c01aa4:	14961a03 	b	a0,s6,0x81c082b4                                       ; Branch: evaluate condition and jump (error state fallback/looping)
81c01aa8:	97056500 	lhu	a1,25856(t8)                                     ; Memory Access: Memory read/write operation
81c01aac:	6303ef00 	daddi	v1,t8,-4352
81c01ab0:	6b04b408 	ldl	a0,-19448(t8)
81c01ab4:	ea6c9c41 	swc2	$12,-25535(s3)                                     ; Memory Access: Memory read/write operation
81c01ab8:	b6072a04 	sdr	a3,10756(s0)
81c01abc:	6a009ea0 	ldl	zero,-24928(s0)
81c01ac0:	6a002d04 	ldl	zero,11524(s0)
81c01ac4:	df40b704 	ld	zero,-18684(k0)
81c01ac8:	e8206a01 	swc2	$0,27137(at)                                     ; Memory Access: Memory read/write operation
81c01acc:	65006500 	daddiu	zero,t0,25856
81c01ad0:	a1a08000 	sb	zero,-32768(t5)                                     ; Memory Access: Memory read/write operation
81c01ad4:	81c05ac8 	lb	zero,23240(t6)                                     ; Memory Access: Memory read/write operation
81c01ad8:	d00563fc 	lld	a1,25596(zero)
81c01adc:	d1066207 	lld	a2,25095(t0)
81c01ae0:	9a60b224 	lwr	zero,-19932(s3)                                     ; Memory Access: Memory read/write operation
81c01ae4:	9b206704 	lwr	zero,26372(t9)                                     ; Memory Access: Memory read/write operation
81c01ae8:	9a86b223 	lwr	a2,-19933(s4)                                     ; Memory Access: Memory read/write operation
81c01aec:	5c01f400 	0x5c01f400
81c01af0:	9a62612a 	lwr	v0,24874(s3)                                     ; Memory Access: Memory read/write operation
81c01af4:	4d016dff 	b	0x81c1d2f4                                       ; Branch: evaluate condition and jump (error state fallback/looping)
81c01af8:	da62ebad 	ldc2	$2,-5203(s3)                                     ; Memory Access: Memory read/write operation
81c01afc:	06ac1a03 	teqi	s5,6659
81c01b00:	22fc6500 	addi	gp,s7,25856                                     ; Math operation on registers
81c01b04:	b41bb21c 	sdr	k1,-19940(zero)
81c01b08:	2b049a66 	slti	a0,t8,-26010
81c01b0c:	de209cc0 	ld	zero,-25408(s1)
81c01b10:	1026d864 	b	at,a2,0x81bf7ca4                                       ; Branch: evaluate condition and jump (error state fallback/looping)
81c01b14:	d8a09aa3 	ldc2	$0,-25949(a1)                                     ; Memory Access: Memory read/write operation
81c01b18:	f7ff9a64 	sdc1	$f31,-26012(ra)                                     ; Memory Access: Memory read/write operation
81c01b1c:	d8616d1f 	ldc2	$1,27935(v1)                                     ; Memory Access: Memory read/write operation
81c01b20:	d8e29ae5 	ldc2	$2,-25883(a3)                                     ; Memory Access: Memory read/write operation
81c01b24:	b7159ac7 	sdr	s5,-25913(t8)
81c01b28:	9a66d8c3 	lwr	a2,-10045(s3)                                     ; Memory Access: Memory read/write operation
81c01b2c:	d864ebac 	ldc2	$4,-5204(v1)                                     ; Memory Access: Memory read/write operation
81c01b30:	b5139fc0 	sdr	s3,-24640(t0)
81c01b34:	9d60d8c5 	lwu	zero,-10043(t3)                                     ; Memory Access: Memory read/write operation
81c01b38:	6800d866 	ldl	zero,-10138(zero)
81c01b3c:	da02dd00 	ldc2	$2,-8960(s0)                                     ; Memory Access: Memory read/write operation
81c01b40:	df209ce0 	ld	zero,-25376(t9)
81c01b44:	db20100d 	ldc2	$0,4109(t9)                                     ; Memory Access: Memory read/write operation
81c01b48:	d8246900 	ldc2	$4,26880(at)                                     ; Memory Access: Memory read/write operation
81c01b4c:	d821d820 	ldc2	$1,-10208(at)                                     ; Memory Access: Memory read/write operation
81c01b50:	d823d822 	ldc2	$3,-10206(at)                                     ; Memory Access: Memory read/write operation
81c01b54:	d826d825 	ldc2	$6,-10203(at)                                     ; Memory Access: Memory read/write operation
81c01b58:	06ac1a03 	teqi	s5,6659
81c01b5c:	22fc6500 	addi	gp,s7,25856                                     ; Math operation on registers
81c01b60:	b4086a00 	sdr	t0,27136(zero)
81c01b64:	9707dc40 	lhu	a3,-9152(t8)                                     ; Memory Access: Memory read/write operation
81c01b68:	90059106 	lbu	a1,-28410(zero)                                     ; Memory Access: Memory read/write operation
81c01b6c:	6304ef00 	daddi	a0,t8,-4352
81c01b70:	81c05574 	lb	zero,21876(t6)                                     ; Memory Access: Memory read/write operation
81c01b74:	a1a08000 	sb	zero,-32768(t5)                                     ; Memory Access: Memory read/write operation
81c01b78:	81c05acc 	lb	zero,23244(t6)                                     ; Memory Access: Memory read/write operation
81c01b7c:	81c05ad0 	lb	zero,23248(t6)                                     ; Memory Access: Memory read/write operation
81c01b80:	81c05ac8 	lb	zero,23240(t6)                                     ; Memory Access: Memory read/write operation
81c01b84:	9eabb604 	lwu	t3,-18940(s5)                                     ; Memory Access: Memory read/write operation
81c01b88:	326233a2 	andi	v0,s3,0x33a2                                     ; Bitwise isolation/masking operation
81c01b8c:	c461c4a0 	lwc1	$f1,-15200(v1)                                     ; Memory Access: Memory read/write operation
81c01b90:	c442e820 	lwc1	$f2,-6112(v0)                                     ; Memory Access: Memory read/write operation
81c01b94:	a1a08000 	sb	zero,-32768(t5)                                     ; Memory Access: Memory read/write operation
81c01b98:	d10863fb 	lld	t0,25595(t0)
81c01b9c:	d007b11e 	lld	a3,-20194(zero)
81c01ba0:	99616209 	lwr	at,25097(t3)                                     ; Memory Access: Memory read/write operation
81c01ba4:	eb4c6a01 	swc2	$12,27137(k0)                                     ; Memory Access: Memory read/write operation
81c01ba8:	2b2e6704 	slti	t6,t9,26372
81c01bac:	ec4c9980 	swc3	$12,-26240(v0)                                     ; Memory Access: Memory read/write operation
81c01bb0:	b51a242b 	sdr	k0,9259(t0)
81c01bb4:	6e006c11 	ldr	zero,27665(s0)
81c01bb8:	09001a03 	j	0x8400680c                                       ; Jump or subroutine call
81c01bbc:	9604d204 	lhu	a0,-11772(s0)                                     ; Memory Access: Memory read/write operation
81c01bc0:	dfc0b717 	ld	zero,-18665(s8)
81c01bc4:	b21798a6 	sdl	s7,-26458(s0)
81c01bc8:	9880daa0 	lwr	zero,-9568(a0)                                     ; Memory Access: Memory read/write operation
81c01bcc:	d983b216 	ldc2	$3,-19946(t4)                                     ; Memory Access: Memory read/write operation
81c01bd0:	d9649861 	ldc2	$4,-26527(t3)                                     ; Memory Access: Memory read/write operation
81c01bd4:	6b1098e2 	ldl	s0,-26398(t8)
81c01bd8:	98c3d9e5 	lwr	v1,-9755(a2)                                     ; Memory Access: Memory read/write operation
81c01bdc:	98a4d9c7 	lwr	a0,-9785(a1)                                     ; Memory Access: Memory read/write operation
81c01be0:	d946eaac 	ldc2	$6,-5460(t2)                                     ; Memory Access: Memory read/write operation
81c01be4:	72039845 	0x72039845
81c01be8:	72046008 	0x72046008
81c01bec:	b30f6102 	sdl	t7,24834(t8)
81c01bf0:	68031004 	ldl	v1,4100(zero)
81c01bf4:	f500e84c 	sdc1	$f0,-6068(t0)                                     ; Memory Access: Memory read/write operation
81c01bf8:	b1073300 	sdl	a3,13056(t0)
81c01bfc:	ec6d6c07 	swc3	$13,27655(v1)                                     ; Memory Access: Memory read/write operation
81c01c00:	9942d982 	lwr	v0,-9854(t2)                                     ; Memory Access: Memory read/write operation
81c01c04:	10016a00 	b	zero,at,0x81c1c408                                       ; Branch: evaluate condition and jump (error state fallback/looping)
81c01c08:	97096a02 	lhu	t1,27138(t8)                                     ; Memory Access: Memory read/write operation
81c01c0c:	90079108 	lbu	a3,-28408(zero)                                     ; Memory Access: Memory read/write operation
81c01c10:	6305ef00 	daddi	a1,t8,-4352
81c01c14:	a1a08000 	sb	zero,-32768(t5)                                     ; Memory Access: Memory read/write operation
81c01c18:	0632ea00 	b	s1,0x81bfc41c                                       ; Branch: evaluate condition and jump (error state fallback/looping)
81c01c1c:	81c05ac8 	lb	zero,23240(t6)                                     ; Memory Access: Memory read/write operation
81c01c20:	81c05ad0 	lb	zero,23248(t6)                                     ; Memory Access: Memory read/write operation
81c01c24:	0003ffff 	dsra32	ra,v1,0x1f
81c01c28:	00100010 	0x100010
81c01c2c:	d00d63f8 	lld	t5,25592(zero)
81c01c30:	d10e620f 	lld	t6,25103(t0)
81c01c34:	9a40b225 	lwr	zero,-19931(s2)                                     ; Memory Access: Memory read/write operation
81c01c38:	72016b00 	0x72016b00
81c01c3c:	d3046704 	lld	a0,26372(t8)
81c01c40:	d306d305 	lld	a2,-11515(t8)
81c01c44:	d308d307 	lld	t0,-11513(t8)
81c01c48:	d30ad309 	lld	t2,-11511(t8)
81c01c4c:	22066004 	addi	a2,s0,24580                                     ; Math operation on registers
81c01c50:	60045a04 	daddi	a0,zero,23044
81c01c54:	1a031033 	0x1a031033
81c01c58:	040406b6 	0x40406b6
81c01c5c:	6d01b11c 	ldr	at,-20196(t0)
81c01c60:	ecac9980 	swc3	$12,-26240(a1)                                     ; Memory Access: Memory read/write operation
81c01c64:	b51b242b 	sdr	k1,9259(t0)
81c01c68:	1a036c11 	0x1a036c11
81c01c6c:	6e000900 	ldr	zero,2304(s0)
81c01c70:	b7166a03 	sdr	s6,27139(t8)
81c01c74:	98c2df40 	lwr	v0,-8384(a2)                                     ; Memory Access: Memory read/write operation
81c01c78:	ddc0b517 	ld	zero,-19177(t6)
81c01c7c:	6b019880 	ldl	at,-26496(t8)
81c01c80:	d983ea6b 	ldc2	$3,-5525(t4)                                     ; Memory Access: Memory read/write operation
81c01c84:	a8e2d944 	swl	v0,-9916(a3)                                     ; Memory Access: Memory read/write operation
81c01c88:	98c2d9e6 	lwr	v0,-9754(a2)                                     ; Memory Access: Memory read/write operation
81c01c8c:	b2132602 	sdl	s3,9730(s0)
81c01c90:	b2131001 	sdl	s3,4097(s0)
81c01c94:	d842b00e 	ldc2	$2,-20466(v0)                                     ; Memory Access: Memory read/write operation
81c01c98:	06ac1a03 	teqi	s5,6659
81c01c9c:	22fc6500 	addi	gp,s7,25856                                     ; Math operation on registers
81c01ca0:	21049108 	addi	a0,t0,-28408                                     ; Math operation on registers
81c01ca4:	06e61a03 	0x6e61a03
81c01ca8:	10060404 	b	zero,a2,0x81c02cbc                                       ; Branch: evaluate condition and jump (error state fallback/looping)
81c01cac:	f0106c11 	scd	s0,27665(zero)
81c01cb0:	1a036d00 	0x1a036d00
81c01cb4:	6e000900 	ldr	zero,2304(s0)
81c01cb8:	10016a00 	b	zero,at,0x81c1c4bc                                       ; Branch: evaluate condition and jump (error state fallback/looping)
81c01cbc:	970f6a02 	lhu	t7,27138(t8)                                     ; Memory Access: Memory read/write operation
81c01cc0:	900d910e 	lbu	t5,-28402(zero)                                     ; Memory Access: Memory read/write operation
81c01cc4:	6308ef00 	daddi	t0,t8,-4352
81c01cc8:	81c05ac8 	lb	zero,23240(t6)                                     ; Memory Access: Memory read/write operation
81c01ccc:	a1a08000 	sb	zero,-32768(t5)                                     ; Memory Access: Memory read/write operation
81c01cd0:	0632ea00 	b	s1,0x81bfc4d4                                       ; Branch: evaluate condition and jump (error state fallback/looping)
81c01cd4:	81c05ad0 	lb	zero,23248(t6)                                     ; Memory Access: Memory read/write operation
81c01cd8:	00010007 	srav	zero,at,zero
81c01cdc:	00010005 	0x10005
81c01ce0:	e820b202 	swc2	$0,-19966(at)                                     ; Memory Access: Memory read/write operation
81c01ce4:	6500da82 	daddiu	zero,t0,-9598
81c01ce8:	a18c0000 	sb	t4,0(t4)                                     ; Memory Access: Memory read/write operation
81c01cec:	60055c05 	daddi	a1,zero,23557
81c01cf0:	b2043388 	sdl	a0,13192(s0)
81c01cf4:	e820e271 	swc2	$0,-7567(at)                                     ; Memory Access: Memory read/write operation
81c01cf8:	e8209c40 	swc2	$0,-25536(at)                                     ; Memory Access: Memory read/write operation
81c01cfc:	65006a00 	daddiu	zero,t0,27136
81c01d00:	81c05784 	lb	zero,22404(t6)                                     ; Memory Access: Memory read/write operation
81c01d04:	6b01b407 	ldl	at,-19449(t8)
81c01d08:	ea6c9c42 	swc2	$12,-25534(s3)                                     ; Memory Access: Memory read/write operation
81c01d0c:	b70622fb 	sdr	a2,8955(t8)
81c01d10:	6e00f707 	ldr	zero,-2297(s0)
81c01d14:	edcc9fa1 	swc3	$12,-24671(t6)                                     ; Memory Access: Memory read/write operation
81c01d18:	e8202dfa 	swc2	$0,11770(at)                                     ; Memory Access: Memory read/write operation
81c01d1c:	65006500 	daddiu	zero,t0,25856
81c01d20:	a1a3f000 	sb	v1,-4096(t5)                                     ; Memory Access: Memory read/write operation
81c01d24:	a1a14000 	sb	at,16384(t5)                                     ; Memory Access: Memory read/write operation
81c01d28:	b407b206 	sdr	a3,-19962(zero)
81c01d2c:	da606b00 	ldc2	$0,27392(s3)                                     ; Memory Access: Memory read/write operation
81c01d30:	4a08da61 	c2	0x8da61
81c01d34:	61faea8a 	daddi	k0,t7,-5494
81c01d38:	b204b402 	sdl	a0,-19454(s0)
81c01d3c:	da80e820 	ldc2	$0,-6112(s4)                                     ; Memory Access: Memory read/write operation
81c01d40:	81c05ad4 	lb	zero,23252(t6)                                     ; Memory Access: Memory read/write operation
81c01d44:	81c05ba4 	lb	zero,23460(t6)                                     ; Memory Access: Memory read/write operation
81c01d48:	81c0027c 	lb	zero,636(t6)                                     ; Memory Access: Memory read/write operation
81c01d4c:	6a055c1a 	ldl	a1,23578(s0)
81c01d50:	b2056006 	sdl	a1,24582(s0)
81c01d54:	e271338c 	sc	s1,13196(s3)
81c01d58:	dcc1dca0 	ld	at,-9056(a2)
81c01d5c:	e8206a00 	swc2	$0,27136(at)                                     ; Memory Access: Memory read/write operation
81c01d60:	65006500 	daddiu	zero,t0,25856
81c01d64:	81c05ad4 	lb	zero,23252(t6)                                     ; Memory Access: Memory read/write operation
81c01d68:	d10863fb 	lld	t0,25595(t0)
81c01d6c:	6209d007 	daddi	t1,s0,-12281
81c01d70:	b0096764 	sdl	t1,26468(zero)
81c01d74:	9840b109 	lwr	zero,-20215(v0)                                     ; Memory Access: Memory read/write operation
81c01d78:	67832204 	daddiu	v1,gp,8708
81c01d7c:	d304ea40 	lld	a0,-5568(t8)
81c01d80:	48049304 	0x48049304
81c01d84:	61f7e82a 	daddi	s7,t7,-6102
81c01d88:	91089709 	lbu	t0,-26871(t0)                                     ; Memory Access: Memory read/write operation
81c01d8c:	ef009007 	swc3	$0,-28665(t8)                                     ; Memory Access: Memory read/write operation
81c01d90:	65006305 	daddiu	zero,t0,25349
81c01d94:	81c05ba4 	lb	zero,23460(t6)                                     ; Memory Access: Memory read/write operation
81c01d98:	81c05c3c 	lb	zero,23612(t6)                                     ; Memory Access: Memory read/write operation
81c01d9c:	e820b202 	swc2	$0,-19966(at)                                     ; Memory Access: Memory read/write operation
81c01da0:	65009a40 	daddiu	zero,t0,-26048
81c01da4:	81c0598c 	lb	zero,22924(t6)                                     ; Memory Access: Memory read/write operation
81c01da8:	c6406a00 	lwc1	$f0,27136(s2)                                     ; Memory Access: Memory read/write operation
81c01dac:	6b05b22c 	ldl	a1,-19924(t8)
81c01db0:	604dec4a 	daddi	t5,v0,-5046
81c01db4:	611eea83 	daddi	s8,t0,-5501
81c01db8:	6b01b22a 	ldl	at,-19926(t8)
81c01dbc:	6047ec4a 	daddi	a3,v0,-5046
81c01dc0:	610bea83 	daddi	t3,t0,-5501
81c01dc4:	eb8eb328 	swc2	$14,-19672(gp)                                     ; Memory Access: Memory read/write operation
81c01dc8:	b228233e 	sdl	t0,9022(s1)
81c01dcc:	603bec4a 	daddi	k1,at,-5046
81c01dd0:	6e00f010 	ldr	zero,-4080(s0)
81c01dd4:	2435ecce 	addiu	s5,at,-4914                                     ; Math operation on registers
81c01dd8:	b225103c 	sdl	a1,4156(s1)
81c01ddc:	ec4a6b03 	swc3	$10,27395(v0)                                     ; Memory Access: Memory read/write operation
81c01de0:	b2246036 	sdl	a0,24630(s1)
81c01de4:	ec4a6b04 	swc3	$10,27396(v0)                                     ; Memory Access: Memory read/write operation
81c01de8:	b2236032 	sdl	v1,24626(s1)
81c01dec:	ec4e6b02 	swc3	$14,27394(v0)                                     ; Memory Access: Memory read/write operation
81c01df0:	102f242e 	b	at,t7,0x81c0aeac                                       ; Branch: evaluate condition and jump (error state fallback/looping)
81c01df4:	6b09b221 	ldl	t1,-19935(t8)
81c01df8:	6029ec4a 	daddi	t1,at,-5046
81c01dfc:	610dea83 	daddi	t5,t0,-5501
81c01e00:	6b07b21f 	ldl	a3,-19937(t8)
81c01e04:	6023ec4a 	daddi	v1,at,-5046
81c01e08:	6b08b21e 	ldl	t0,-19938(t8)
81c01e0c:	601fec4a 	daddi	ra,zero,-5046
81c01e10:	6b06b21d 	ldl	a2,-19939(t8)
81c01e14:	241bec4e 	li	k1,-5042                                      ; Load Immediate pseudo-instruction
81c01e18:	b21c101c 	sdl	gp,4124(s0)
81c01e1c:	ec4a6b0b 	swc3	$10,27403(v0)                                     ; Memory Access: Memory read/write operation
81c01e20:	ea836016 	swc2	$3,24598(s4)                                     ; Memory Access: Memory read/write operation
81c01e24:	b21a6105 	sdl	k0,24837(s0)
81c01e28:	ec4e6b0a 	swc3	$14,27402(v0)                                     ; Memory Access: Memory read/write operation
81c01e2c:	10112410 	b	zero,s1,0x81c0ae70                                       ; Branch: evaluate condition and jump (error state fallback/looping)
81c01e30:	6b0cb218 	ldl	t4,-19944(t8)
81c01e34:	600bec4a 	daddi	t3,zero,-5046
81c01e38:	6b0db217 	ldl	t5,-19945(t8)
81c01e3c:	2407ec4e 	li	a3,-5042                                      ; Load Immediate pseudo-instruction
81c01e40:	e8201008 	swc2	$0,4104(at)                                     ; Memory Access: Memory read/write operation
81c01e44:	6c00dd80 	ldr	zero,-8832(zero)
81c01e48:	e820b208 	swc2	$0,-19960(at)                                     ; Memory Access: Memory read/write operation
81c01e4c:	e820dd80 	swc2	$0,-8832(at)                                     ; Memory Access: Memory read/write operation
81c01e50:	6f00dd60 	ldr	zero,-8864(t8)
81c01e54:	e820b205 	swc2	$0,-19963(at)                                     ; Memory Access: Memory read/write operation
81c01e58:	6500dde0 	daddiu	zero,t0,-8736
81c01e5c:	0632ea00 	b	s1,0x81bfc660                                       ; Branch: evaluate condition and jump (error state fallback/looping)
81c01e60:	025317c0 	0x25317c0
81c01e64:	00c65d40 	0xc65d40
81c01e68:	018cba80 	0x18cba80
81c01e6c:	04a62f80 	0x4a62f80
81c01e70:	05503649 	b	t2,0x81c0f798                                       ; Branch: evaluate condition and jump (error state fallback/looping)
81c01e74:	03197500 	0x3197500
81c01e78:	094c5f00 	j	0x85317c00                                       ; Jump or subroutine call
81c01e7c:	07704c00 	b	k1,0x81c14e80                                       ; Branch: evaluate condition and jump (error state fallback/looping)
81c01e80:	0843e2ab 	j	0x810f8aac                                       ; Jump or subroutine call
81c01e84:	06c32dd1 	b	s6,0x81c0d5cc                                       ; Branch: evaluate condition and jump (error state fallback/looping)
81c01e88:	0c65d400 	j	0x81975000                                       ; Jump or subroutine call
81c01e8c:	0aa06c92 	j	0x8a81b248                                       ; Jump or subroutine call
81c01e90:	0ee09800 	j	0x8b826000                                       ; Jump or subroutine call
81c01e94:	1298be00 	b	s4,t8,0x81bf1698                                       ; Branch: evaluate condition and jump (error state fallback/looping)
81c01e98:	6b00b226 	ldl	zero,-19930(t8)
81c01e9c:	6d2663fc 	ldr	a2,25596(t1)
81c01ea0:	d0066207 	lld	a2,25095(zero)
81c01ea4:	da62da61 	ldc2	$2,-9631(s3)                                     ; Memory Access: Memory read/write operation
81c01ea8:	da64da63 	ldc2	$4,-9629(s3)                                     ; Memory Access: Memory read/write operation
81c01eac:	da66da65 	ldc2	$6,-9627(s3)                                     ; Memory Access: Memory read/write operation
81c01eb0:	da68da67 	ldc2	$8,-9625(s3)                                     ; Memory Access: Memory read/write operation
81c01eb4:	da6ada69 	ldc2	$10,-9623(s3)                                     ; Memory Access: Memory read/write operation
81c01eb8:	b31fdaa0 	sdl	ra,-9568(t8)
81c01ebc:	6e00b21f 	ldr	zero,-19937(s0)
81c01ec0:	4a04dac0 	c2	0x4dac0
81c01ec4:	61fbea6a 	daddi	k1,t7,-5526
81c01ec8:	ea83b21d 	swc2	$3,-19939(s4)                                     ; Memory Access: Memory read/write operation
81c01ecc:	67826001 	daddiu	v0,gp,24577
81c01ed0:	677d6a00 	daddiu	sp,k1,27136
81c01ed4:	c3506800 	ll	s0,26624(k0)
81c01ed8:	06040505 	0x6040505
81c01edc:	076a1a03 	tlti	k1,6659
81c01ee0:	b718d005 	sdr	t8,-12283(t8)
81c01ee4:	67029f80 	daddiu	v0,t8,-24704
81c01ee8:	6003ec43 	daddi	v1,zero,-5053
81c01eec:	075a1a03 	0x75a1a03
81c01ef0:	b5156782 	sdr	s5,26498(t0)
81c01ef4:	9ca09d80 	lwu	zero,-25216(a1)                                     ; Memory Access: Memory read/write operation
81c01ef8:	b615b214 	sdr	s5,-19948(s0)
81c01efc:	dac06b10 	ldc2	$0,27408(s6)                                     ; Memory Access: Memory read/write operation
81c01f00:	6e119705 	ldr	s1,-26875(s0)
81c01f04:	b313ef6d 	sdl	s3,-4243(t8)
81c01f08:	dad7daf3 	ldc2	$23,-9485(s6)                                     ; Memory Access: Memory read/write operation
81c01f0c:	b712da60 	sdr	s2,-9632(t8)
81c01f10:	b412dca0 	sdr	s2,-9056(zero)
81c01f14:	dce9b60b 	ld	t1,-18933(a3)
81c01f18:	e8a39ea0 	swc2	$3,-24928(a1)                                     ; Memory Access: Memory read/write operation
81c01f1c:	1a036003 	0x1a036003
81c01f20:	6790075a 	daddiu	s0,gp,1882
81c01f24:	dc00b407 	ld	zero,-19449(zero)
81c01f28:	90069707 	lbu	a2,-26873(zero)                                     ; Memory Access: Memory read/write operation
81c01f2c:	6304ef00 	daddi	a0,t8,-4352
81c01f30:	81c06f18 	lb	zero,28440(t6)                                     ; Memory Access: Memory read/write operation
81c01f34:	81c06f18 	lb	zero,28440(t6)                                     ; Memory Access: Memory read/write operation
81c01f38:	81c06ed8 	lb	zero,28376(t6)                                     ; Memory Access: Memory read/write operation
81c01f3c:	1298be00 	b	s4,t8,0x81bf1740                                       ; Branch: evaluate condition and jump (error state fallback/looping)
81c01f40:	81c0598c 	lb	zero,22924(t6)                                     ; Memory Access: Memory read/write operation
81c01f44:	81c05574 	lb	zero,21876(t6)                                     ; Memory Access: Memory read/write operation
81c01f48:	a1a00000 	sb	zero,0(t5)                                     ; Hardware Register Access: operation targeting REG_SYS_CTRL_REG_DBG at 0xA1A00000
81c01f4c:	00a50001 	0xa50001
81c01f50:	00a50000 	0xa50000
81c01f54:	80000000 	lb	zero,0(zero)                                     ; Memory Access: Memory read/write operation
81c01f58:	a1a0f000 	sb	zero,-4096(t5)                                     ; Memory Access: Memory read/write operation
81c01f5c:	050563fc 	0x50563fc
81c01f60:	6207d006 	daddi	a3,s0,-12282
81c01f64:	076a1a03 	tlti	k1,6659
81c01f68:	67020604 	daddiu	v0,t8,1540
81c01f6c:	9a40b212 	lwr	zero,-19950(s2)                                     ; Memory Access: Memory read/write operation
81c01f70:	601bea0a 	daddi	k1,zero,-5622
81c01f74:	6003ea03 	daddi	v1,zero,-5629
81c01f78:	075a1a03 	0x75a1a03
81c01f7c:	b50f6790 	sdr	t7,26512(t0)
81c01f80:	9fa09de0 	lwu	zero,-25120(sp)                                     ; Memory Access: Memory read/write operation
81c01f84:	b20fb30e 	sdl	t7,-19698(s0)
81c01f88:	db406e0f 	ldc2	$0,28175(k0)                                     ; Memory Access: Memory read/write operation
81c01f8c:	6c109205 	ldr	s0,-28155(zero)
81c01f90:	b60deacc 	sdr	t5,-5428(s0)
81c01f94:	db53ea8d 	ldc2	$19,-5491(k0)                                     ; Memory Access: Memory read/write operation
81c01f98:	b407dbc0 	sdr	a3,-9280(zero)
81c01f9c:	9c60dfa0 	lwu	zero,-8288(v1)                                     ; Memory Access: Memory read/write operation
81c01fa0:	6003e863 	daddi	v1,zero,-6045
81c01fa4:	075a1a03 	0x75a1a03
81c01fa8:	97076790 	lhu	a3,26512(t8)                                     ; Memory Access: Memory read/write operation
81c01fac:	ef009006 	swc3	$0,-28666(t8)                                     ; Memory Access: Memory read/write operation
81c01fb0:	65006304 	daddiu	zero,t0,25348
81c01fb4:	81c0598c 	lb	zero,22924(t6)                                     ; Memory Access: Memory read/write operation
81c01fb8:	81c05574 	lb	zero,21876(t6)                                     ; Memory Access: Memory read/write operation
81c01fbc:	a1a00000 	sb	zero,0(t5)                                     ; Hardware Register Access: operation targeting REG_SYS_CTRL_REG_DBG at 0xA1A00000
81c01fc0:	00a50001 	0xa50001
81c01fc4:	00a50000 	0xa50000
81c01fc8:	ea8c6aff 	swc2	$12,27391(s4)                                     ; Memory Access: Memory read/write operation
81c01fcc:	b409b308 	sdr	t1,-19704(zero)
81c01fd0:	e8202a02 	swc2	$0,10754(at)                                     ; Memory Access: Memory read/write operation
81c01fd4:	b208db82 	sdl	t0,-9342(s0)
81c01fd8:	9fa09ae0 	lwu	zero,-25888(sp)                                     ; Memory Access: Memory read/write operation
81c01fdc:	dbc0b607 	ldc2	$0,-18937(s8)                                     ; Memory Access: Memory read/write operation
81c01fe0:	b407db81 	sdr	a3,-9343(zero)
81c01fe4:	e820db80 	swc2	$0,-9344(at)                                     ; Memory Access: Memory read/write operation
81c01fe8:	6500dfa0 	daddiu	zero,t0,-8288
81c01fec:	a1a00000 	sb	zero,0(t5)                                     ; Hardware Register Access: operation targeting REG_SYS_CTRL_REG_DBG at 0xA1A00000
81c01ff0:	40000000 	mfc0	zero,$0
81c01ff4:	81c05574 	lb	zero,21876(t6)                                     ; Memory Access: Memory read/write operation
81c01ff8:	00a50001 	0xa50001
81c01ffc:	00a50000 	0xa50000
81c02000:	5c0b63fd 	0x5c0b63fd
81c02004:	67a46205 	daddiu	a0,sp,25093
81c02008:	0c046029 	j	0x801180a4                                       ; Jump or subroutine call
81c0200c:	e4d536a4 	swc1	$f21,13988(a2)                                     ; Memory Access: Memory read/write operation
81c02010:	e4698d60 	swc1	$f9,-29344(v1)                                     ; Memory Access: Memory read/write operation
81c02014:	6500ea00 	daddiu	zero,t0,-5632
81c02018:	0017001b 	divu	zero,zero,s7
81c0201c:	00250021 	addu	zero,at,a1                                     ; Math operation on registers
81c02020:	002d0029 	0x2d0029
81c02024:	00350031 	tgeu	at,s5
81c02028:	003d0039 	0x3d0039
81c0202c:	b2100041 	sdl	s0,65(s0)
81c02030:	f010101a 	scd	s0,4122(zero)
81c02034:	10176a00 	b	zero,s7,0x81c1c838                                       ; Branch: evaluate condition and jump (error state fallback/looping)
81c02038:	1015b20e 	b	zero,s5,0x81bee874                                       ; Branch: evaluate condition and jump (error state fallback/looping)
81c0203c:	1013b20e 	b	zero,s3,0x81bee878                                       ; Branch: evaluate condition and jump (error state fallback/looping)
81c02040:	1011b20e 	b	zero,s1,0x81bee87c                                       ; Branch: evaluate condition and jump (error state fallback/looping)
81c02044:	100fb20e 	b	zero,t7,0x81bee880                                       ; Branch: evaluate condition and jump (error state fallback/looping)
81c02048:	100db20e 	b	zero,t5,0x81bee884                                       ; Branch: evaluate condition and jump (error state fallback/looping)
81c0204c:	100bb20e 	b	zero,t3,0x81bee888                                       ; Branch: evaluate condition and jump (error state fallback/looping)
81c02050:	1009b20e 	b	zero,t1,0x81bee88c                                       ; Branch: evaluate condition and jump (error state fallback/looping)
81c02054:	1007b20e 	b	zero,a3,0x81bee890                                       ; Branch: evaluate condition and jump (error state fallback/looping)
81c02058:	1005b20e 	b	zero,a1,0x81bee894                                       ; Branch: evaluate condition and jump (error state fallback/looping)
81c0205c:	1a03b40e 	0x1a03b40e
81c02060:	65000683 	daddiu	zero,t0,1667
81c02064:	97056a00 	lhu	a1,27136(t8)                                     ; Memory Access: Memory read/write operation
81c02068:	6303ef00 	daddi	v1,t8,-4352
81c0206c:	00c65d40 	0xc65d40
81c02070:	018cba80 	0x18cba80
81c02074:	025317c0 	0x25317c0
81c02078:	03197500 	0x3197500
81c0207c:	04a62f80 	0x4a62f80
81c02080:	0632ea00 	b	s1,0x81bfc884                                       ; Branch: evaluate condition and jump (error state fallback/looping)
81c02084:	094c5f00 	j	0x85317c00                                       ; Jump or subroutine call
81c02088:	0c65d400 	j	0x81975000                                       ; Jump or subroutine call
81c0208c:	0ee09800 	j	0x8b826000                                       ; Jump or subroutine call
81c02090:	1298be00 	b	s4,t8,0x81bf1894                                       ; Branch: evaluate condition and jump (error state fallback/looping)
81c02094:	81c057b4 	lb	zero,22452(t6)                                     ; Memory Access: Memory read/write operation
81c02098:	b30563fd 	sdl	a1,25597(t8)
81c0209c:	e3896205 	sc	t1,25093(gp)
81c020a0:	08001a03 	j	0x8000680c                                       ; Jump or subroutine call
81c020a4:	9705a280 	lhu	a1,-23936(t8)                                     ; Memory Access: Memory read/write operation
81c020a8:	6303ef00 	daddi	v1,t8,-4352
81c020ac:	81c06ed8 	lb	zero,28376(t6)                                     ; Memory Access: Memory read/write operation
81c020b0:	63fdb31f 	daddi	sp,ra,-19681
81c020b4:	6205ec6a 	daddi	a1,s0,-5014
81c020b8:	6a0567a4 	ldl	a1,26532(s0)
81c020bc:	eb836033 	swc2	$3,24627(gp)                                     ; Memory Access: Memory read/write operation
81c020c0:	b31c6116 	sdl	gp,24854(t8)
81c020c4:	ec6a6a02 	swc3	$10,27138(v1)                                     ; Memory Access: Memory read/write operation
81c020c8:	eb83602d 	swc2	$3,24621(gp)                                     ; Memory Access: Memory read/write operation
81c020cc:	f0106108 	scd	s0,24840(zero)
81c020d0:	6a007400 	ldl	zero,29696(s0)
81c020d4:	b3186027 	sdl	t8,24615(t8)
81c020d8:	eb8e6a01 	swc2	$14,27137(gp)                                     ; Memory Access: Memory read/write operation
81c020dc:	b317101d 	sdl	s7,4125(t8)
81c020e0:	eb8e6a03 	swc2	$14,27139(gp)                                     ; Memory Access: Memory read/write operation
81c020e4:	b316231f 	sdl	s6,8991(t8)
81c020e8:	eb8e6a04 	swc2	$14,27140(gp)                                     ; Memory Access: Memory read/write operation
81c020ec:	b3151015 	sdl	s5,4117(t8)
81c020f0:	ec6a6a08 	swc3	$10,27144(v1)                                     ; Memory Access: Memory read/write operation
81c020f4:	eb836017 	swc2	$3,24599(gp)                                     ; Memory Access: Memory read/write operation
81c020f8:	b4136108 	sdr	s3,24840(zero)
81c020fc:	ecae6a06 	swc3	$14,27142(a1)                                     ; Memory Access: Memory read/write operation
81c02100:	b3122411 	sdl	s2,9233(t8)
81c02104:	ebae6a07 	swc2	$14,27143(sp)                                     ; Memory Access: Memory read/write operation
81c02108:	b6111007 	sdr	s1,4103(s0)
81c0210c:	ee8e6a09 	swc3	$14,27145(s4)                                     ; Memory Access: Memory read/write operation
81c02110:	b3102609 	sdl	s0,9737(t8)
81c02114:	eb8e6a0a 	swc2	$14,27146(gp)                                     ; Memory Access: Memory read/write operation
81c02118:	b40f2305 	sdr	t7,8965(zero)
81c0211c:	06831a03 	b	s4,0x81c0892c                                       ; Branch: evaluate condition and jump (error state fallback/looping)
81c02120:	6a006500 	ldl	zero,25856(s0)
81c02124:	ef009705 	swc3	$0,-26875(t8)                                     ; Memory Access: Memory read/write operation
81c02128:	65006303 	daddiu	zero,t0,25347
81c0212c:	04a62f80 	0x4a62f80
81c02130:	018cba80 	0x18cba80
81c02134:	00c65d40 	0xc65d40
81c02138:	025317c0 	0x25317c0
81c0213c:	03197500 	0x3197500
81c02140:	0c65d400 	j	0x81975000                                       ; Jump or subroutine call
81c02144:	0632ea00 	b	s1,0x81bfc948                                       ; Branch: evaluate condition and jump (error state fallback/looping)
81c02148:	094c5f00 	j	0x85317c00                                       ; Jump or subroutine call
81c0214c:	0ee09800 	j	0x8b826000                                       ; Jump or subroutine call
81c02150:	1298be00 	b	s4,t8,0x81bf1954                                       ; Branch: evaluate condition and jump (error state fallback/looping)
81c02154:	81c057dc 	lb	zero,22492(t6)                                     ; Memory Access: Memory read/write operation
81c02158:	d00763fb 	lld	a3,25595(zero)
81c0215c:	d1086209 	lld	t0,25097(t0)
81c02160:	9ea0b636 	lwu	zero,-18890(s5)                                     ; Memory Access: Memory read/write operation
81c02164:	9d606704 	lwu	zero,26372(t3)                                     ; Memory Access: Memory read/write operation
81c02168:	b435d304 	sdr	s5,-11516(at)
81c0216c:	9c756a0f 	lwu	s5,27151(v1)                                     ; Memory Access: Memory read/write operation
81c02170:	5b0eeb4c 	0x5b0eeb4c
81c02174:	60046a00 	daddi	a0,zero,27136
81c02178:	3168b232 	andi	t0,t3,0xb232                                     ; Bitwise isolation/masking operation
81c0217c:	9f40e23d 	lwu	zero,-7619(k0)                                     ; Memory Access: Memory read/write operation
81c02180:	6907b331 	ldl	a3,-19663(t0)
81c02184:	6037e86a 	daddi	s7,at,-6038
81c02188:	611aeb03 	daddi	k0,t0,-5373
81c0218c:	6903b32f 	ldl	v1,-19665(t0)
81c02190:	6031e86a 	daddi	s1,at,-6038
81c02194:	6108eb03 	daddi	t0,t0,-5373
81c02198:	6901b42d 	ldl	at,-19411(t0)
81c0219c:	242bec0e 	addiu	t3,at,-5106                                     ; Math operation on registers
81c021a0:	6902b32c 	ldl	v0,-19668(t0)
81c021a4:	1025eb0e 	b	at,a1,0x81bfcde0                                       ; Branch: evaluate condition and jump (error state fallback/looping)
81c021a8:	6905b32b 	ldl	a1,-19669(t0)
81c021ac:	2323eb0e 	addi	v1,t9,-5362                                     ; Math operation on registers
81c021b0:	6906b52a 	ldl	a2,-19158(t0)
81c021b4:	251fed0e 	addiu	ra,t0,-4850                                     ; Math operation on registers
81c021b8:	6904b329 	ldl	a0,-19671(t0)
81c021bc:	1019eb0e 	b	zero,t9,0x81bfcdf8                                       ; Branch: evaluate condition and jump (error state fallback/looping)
81c021c0:	690ab328 	ldl	t2,-19672(t0)
81c021c4:	6017e86a 	daddi	s7,zero,-6038
81c021c8:	6108eb03 	daddi	t0,t0,-5373
81c021cc:	6908b626 	ldl	t0,-18906(t0)
81c021d0:	2611ee0e 	addiu	s1,s0,-4594                                     ; Math operation on registers
81c021d4:	6909b325 	ldl	t1,-19675(t0)
81c021d8:	100beb0e 	b	zero,t3,0x81bfce14                                       ; Branch: evaluate condition and jump (error state fallback/looping)
81c021dc:	690cb724 	ldl	t4,-18652(t0)
81c021e0:	2709ef0e 	addiu	t1,t8,-4338                                     ; Math operation on registers
81c021e4:	690db423 	ldl	t5,-19421(t0)
81c021e8:	2405ec0e 	li	a1,-5106                                      ; Load Immediate pseudo-instruction
81c021ec:	690bb322 	ldl	t3,-19678(t0)
81c021f0:	2301eb0e 	addi	at,t8,-5362                                     ; Math operation on registers
81c021f4:	b3156900 	sdl	s5,26880(t8)
81c021f8:	6108eb43 	daddi	t0,t0,-5309
81c021fc:	6006eb03 	daddi	a2,zero,-5373
81c02200:	6d026c01 	ldr	v0,27649(t0)
81c02204:	0dbf1a03 	j	0x86fc680c                                       ; Jump or subroutine call
81c02208:	9205d205 	lbu	a1,-11771(s0)                                     ; Memory Access: Memory read/write operation
81c0220c:	db35b30c 	ldc2	$21,-19700(t9)                                     ; Memory Access: Memory read/write operation
81c02210:	eb43b30e 	swc2	$3,-19698(k0)                                     ; Memory Access: Memory read/write operation
81c02214:	eb036008 	swc2	$3,24584(t8)                                     ; Memory Access: Memory read/write operation
81c02218:	6c016106 	ldr	at,24838(zero)
81c0221c:	1a036d00 	0x1a036d00
81c02220:	d2050dbf 	lld	a1,3519(s0)
81c02224:	b5059205 	sdr	a1,-28155(t0)
81c02228:	9d009104 	lwu	zero,-28412(t0)                                     ; Memory Access: Memory read/write operation
81c0222c:	9709d820 	lhu	t1,-10208(t8)                                     ; Memory Access: Memory read/write operation
81c02230:	90079108 	lbu	a3,-28408(zero)                                     ; Memory Access: Memory read/write operation
81c02234:	6305ef00 	daddi	a1,t8,-4352
81c02238:	81c05574 	lb	zero,21876(t6)                                     ; Memory Access: Memory read/write operation
81c0223c:	a1a00000 	sb	zero,0(t5)                                     ; Hardware Register Access: operation targeting REG_SYS_CTRL_REG_DBG at 0xA1A00000
81c02240:	81c05884 	lb	zero,22660(t6)                                     ; Memory Access: Memory read/write operation
81c02244:	07704c00 	b	k1,0x81c15248                                       ; Branch: evaluate condition and jump (error state fallback/looping)
81c02248:	04a62f80 	0x4a62f80
81c0224c:	025317c0 	0x25317c0
81c02250:	03197500 	0x3197500
81c02254:	0632ea00 	b	s1,0x81bfca58                                       ; Branch: evaluate condition and jump (error state fallback/looping)
81c02258:	06c32dd1 	b	s6,0x81c0d9a0                                       ; Branch: evaluate condition and jump (error state fallback/looping)
81c0225c:	05503649 	b	t2,0x81c0fb84                                       ; Branch: evaluate condition and jump (error state fallback/looping)
81c02260:	0aa06c92 	j	0x8a81b248                                       ; Jump or subroutine call
81c02264:	0843e2ab 	j	0x810f8aac                                       ; Jump or subroutine call
81c02268:	094c5f00 	j	0x85317c00                                       ; Jump or subroutine call
81c0226c:	0ee09800 	j	0x8b826000                                       ; Jump or subroutine call
81c02270:	1298be00 	b	s4,t8,0x81bf1a74                                       ; Branch: evaluate condition and jump (error state fallback/looping)
81c02274:	0c65d400 	j	0x81975000                                       ; Jump or subroutine call
81c02278:	620b63fa 	daddi	t3,s0,25594
81c0227c:	d009d10a 	lld	t1,-12022(zero)
81c02280:	6c0ab25a 	ldr	t2,-19878(zero)
81c02284:	4cff1001 	0x4cff1001
81c02288:	2b029a60 	slti	v0,t8,-26016
81c0228c:	2cfb4afc 	sltiu	k1,a3,19196
81c02290:	08001a03 	j	0x8000680c                                       ; Jump or subroutine call
81c02294:	b4566500 	sdr	s6,25856(v0)
81c02298:	6101ec43 	daddi	at,t0,-5053
81c0229c:	6782b255 	daddiu	v0,gp,-19883
81c022a0:	1a030505 	0x1a030505
81c022a4:	0604076a 	0x604076a
81c022a8:	6702b153 	daddiu	v0,t8,-20141
81c022ac:	ea0e9940 	swc2	$14,-26304(s0)                                     ; Memory Access: Memory read/write operation
81c022b0:	2214f080 	addi	s4,s0,-3968                                     ; Math operation on registers
81c022b4:	06701a03 	b	s3,0x81c08ac4                                       ; Branch: evaluate condition and jump (error state fallback/looping)
81c022b8:	f0806790 	scd	zero,26512(a0)
81c022bc:	99a0220f 	lwr	zero,8719(t5)                                     ; Memory Access: Memory read/write operation
81c022c0:	eaa3b24e 	swc2	$3,-19890(s5)                                     ; Memory Access: Memory read/write operation
81c022c4:	ea036106 	swc2	$3,24838(s0)                                     ; Memory Access: Memory read/write operation
81c022c8:	6c006004 	ldr	zero,24580(zero)
81c022cc:	0dbf1a03 	j	0x86fc680c                                       ; Jump or subroutine call
81c022d0:	b6496d02 	sdr	t1,27906(s2)
81c022d4:	e8639e60 	swc2	$3,-24992(v1)                                     ; Memory Access: Memory read/write operation
81c022d8:	b4496103 	sdr	t1,24835(v0)
81c022dc:	10386a00 	b	at,t8,0x81c1cae0                                       ; Branch: evaluate condition and jump (error state fallback/looping)
81c022e0:	6900b247 	ldl	zero,-19897(t0)
81c022e4:	4a049ae0 	c2	0x49ae0
81c022e8:	6103e8e3 	daddi	v1,t0,-5917
81c022ec:	71064901 	0x71064901
81c022f0:	b44361f9 	sdr	v1,25081(v0)
81c022f4:	e4d53628 	swc1	$f21,13864(a2)                                     ; Memory Access: Memory read/write operation
81c022f8:	ea639d40 	swc2	$3,-25280(s3)                                     ; Memory Access: Memory read/write operation
81c022fc:	4141605f 	0x4141605f
81c02300:	e7913748 	swc1	$f17,14152(gp)                                     ; Memory Access: Memory read/write operation
81c02304:	9ca0100c 	lwu	zero,4108(a1)                                     ; Memory Access: Memory read/write operation
81c02308:	ed634c04 	swc3	$3,19460(t3)                                     ; Memory Access: Memory read/write operation
81c0230c:	ebae6107 	swc2	$14,24839(sp)                                     ; Memory Access: Memory read/write operation
81c02310:	428f2b08 	c0	0x8f2b08
81c02314:	6b01ec2e 	ldl	at,-5074(t8)
81c02318:	10042c04 	b	zero,a0,0x81c0d32c                                       ; Branch: evaluate condition and jump (error state fallback/looping)
81c0231c:	5a064a01 	0x5a064a01
81c02320:	6b0061f2 	ldl	zero,25074(t8)
81c02324:	e9424aff 	swc2	$2,19199(t2)                                     ; Memory Access: Memory read/write operation
81c02328:	23486101 	addi	t0,k0,24833                                     ; Math operation on registers
81c0232c:	b3343548 	sdl	s4,13640(t9)
81c02330:	1009e56d 	b	zero,t1,0x81bfb8e8                                       ; Branch: evaluate condition and jump (error state fallback/looping)
81c02334:	d2069b80 	lld	a2,-25728(s0)
81c02338:	07d71a03 	0x7d71a03
81c0233c:	9206d307 	lbu	a2,-11513(s0)                                     ; Memory Access: Memory read/write operation
81c02340:	4aff9307 	c2	0xff9307
81c02344:	ea224bfc 	swc2	$2,19452(s1)                                     ; Memory Access: Memory read/write operation
81c02348:	5a066139 	0x5a066139
81c0234c:	103661f3 	b	at,s6,0x81c1ab1c                                       ; Branch: evaluate condition and jump (error state fallback/looping)
81c02350:	4c049c20 	0x4c049c20
81c02354:	6103eb23 	daddi	v1,t0,-5341
81c02358:	72064a01 	0x72064a01
81c0235c:	b42861f9 	sdr	t0,25081(at)
81c02360:	e47d3348 	swc1	$f29,13128(v1)                                     ; Memory Access: Memory read/write operation
81c02364:	67229fc0 	daddiu	v0,t9,-24640
81c02368:	6028ee03 	daddi	t0,at,-4605
81c0236c:	35684261 	ori	t0,t3,0x4261                                      ; Bitwise isolation/masking operation
81c02370:	100ce591 	b	zero,t4,0x81bfb9b8                                       ; Branch: evaluate condition and jump (error state fallback/looping)
81c02374:	4c049ca0 	0x4c049ca0
81c02378:	6107ed03 	daddi	a3,t0,-4861
81c0237c:	2d08ed0e 	sltiu	t0,t0,-4850
81c02380:	ee4e43cf 	swc3	$14,17359(s2)                                     ; Memory Access: Memory read/write operation
81c02384:	2e046c01 	sltiu	a0,s0,27649
81c02388:	4b011004 	c2	0x1011004
81c0238c:	61f25b06 	daddi	s2,t7,23302
81c02390:	4bff6c00 	c2	0x1ff6c00
81c02394:	6101ea62 	daddi	at,t0,-5534
81c02398:	32482411 	andi	t0,s2,0x2411                                     ; Bitwise isolation/masking operation
81c0239c:	e289b418 	sc	t1,-19432(s4)
81c023a0:	9a801009 	lwr	zero,4105(s4)                                     ; Memory Access: Memory read/write operation
81c023a4:	1a03d206 	0x1a03d206
81c023a8:	d30707d7 	lld	a3,2007(t8)
81c023ac:	93079206 	lbu	a3,-28154(t8)                                     ; Memory Access: Memory read/write operation
81c023b0:	4a044901 	c2	0x44901
81c023b4:	6102eb22 	daddi	v0,t0,-5342
81c023b8:	61f35906 	daddi	s3,t7,22790
81c023bc:	07d71a03 	0x7d71a03
81c023c0:	b70d6790 	sdr	t5,26512(t8)
81c023c4:	b20d9f20 	sdl	t5,-24800(s0)
81c023c8:	6006ea23 	daddi	a2,zero,-5597
81c023cc:	6104ea03 	daddi	a0,t0,-5629
81c023d0:	1a036c00 	0x1a036c00
81c023d4:	67a40dbf 	daddiu	a0,sp,3519
81c023d8:	db00b307 	ldc2	$0,-19705(t8)                                     ; Memory Access: Memory read/write operation
81c023dc:	910a970b 	lbu	t2,-26869(t0)                                     ; Memory Access: Memory read/write operation
81c023e0:	ef009009 	swc3	$0,-28663(t8)                                     ; Memory Access: Memory read/write operation
81c023e4:	65006306 	daddiu	zero,t0,25350
81c023e8:	81c06f40 	lb	zero,28480(t6)                                     ; Memory Access: Memory read/write operation
81c023ec:	018cba80 	0x18cba80
81c023f0:	025317c0 	0x25317c0
81c023f4:	81c0598c 	lb	zero,22924(t6)                                     ; Memory Access: Memory read/write operation
81c023f8:	0632ea00 	b	s1,0x81bfcbfc                                       ; Branch: evaluate condition and jump (error state fallback/looping)
81c023fc:	81c0586c 	lb	zero,22636(t6)                                     ; Memory Access: Memory read/write operation
81c02400:	d00763fb 	lld	a3,25595(zero)
81c02404:	d1086209 	lld	t0,25097(t0)
81c02408:	9b40b315 	lwr	zero,-19691(k0)                                     ; Memory Access: Memory read/write operation
81c0240c:	9a206704 	lwr	zero,26372(s1)                                     ; Memory Access: Memory read/write operation
81c02410:	6785b214 	daddiu	a1,gp,-19948
81c02414:	6001eaa3 	daddi	at,zero,-5469
81c02418:	1a036782 	0x1a036782
81c0241c:	d604082c 	ldc1	$f4,2092(s0)                                     ; Memory Access: Memory read/write operation
81c02420:	e06db311 	sc	t5,-19695(v1)
81c02424:	b611a380 	sdr	s1,-23680(s0)
81c02428:	e6b13588 	swc1	$f17,13704(s5)                                     ; Memory Access: Memory read/write operation
81c0242c:	4fff9ce0 	c3	0x1ff9ce0
81c02430:	3748dce0 	ori	t0,k0,0xdce0                                      ; Bitwise isolation/masking operation
81c02434:	9ca0e6f1 	lwu	zero,-6415(a1)                                     ; Memory Access: Memory read/write operation
81c02438:	4d013708 	b	0x81c1005c                                       ; Branch: evaluate condition and jump (error state fallback/looping)
81c0243c:	c340dca0 	ll	zero,-9056(k0)
81c02440:	b20b9604 	sdl	t3,-27132(s0)
81c02444:	1a03e2e1 	0x1a03e2e1
81c02448:	d8c0089e 	ldc2	$0,2206(a2)                                     ; Memory Access: Memory read/write operation
81c0244c:	9d80b504 	lwu	zero,-19196(t4)                                     ; Memory Access: Memory read/write operation
81c02450:	9709dc20 	lhu	t1,-9184(t8)                                     ; Memory Access: Memory read/write operation
81c02454:	90079108 	lbu	a3,-28408(zero)                                     ; Memory Access: Memory read/write operation
81c02458:	6305ef00 	daddi	a1,t8,-4352
81c0245c:	81c05574 	lb	zero,21876(t6)                                     ; Memory Access: Memory read/write operation
81c02460:	1298be00 	b	s4,t8,0x81bf1c64                                       ; Branch: evaluate condition and jump (error state fallback/looping)
81c02464:	81c06ed8 	lb	zero,28376(t6)                                     ; Memory Access: Memory read/write operation
81c02468:	81c06f18 	lb	zero,28440(t6)                                     ; Memory Access: Memory read/write operation
81c0246c:	81c05ba4 	lb	zero,23460(t6)                                     ; Memory Access: Memory read/write operation
81c02470:	6c0263fd 	ldr	v0,25597(zero)
81c02474:	6d02f705 	ldr	v0,-2299(t0)
81c02478:	1a036205 	0x1a036205
81c0247c:	d0040682 	lld	a0,1666(zero)
81c02480:	067f1a03 	0x67f1a03
81c02484:	b30c6c01 	sdl	t4,27649(t8)
81c02488:	68019b40 	ldl	at,-25792(zero)
81c0248c:	220dea0c 	addi	t5,s0,-5620                                     ; Math operation on registers
81c02490:	f080b60a 	scd	zero,-18934(a0)
81c02494:	b40a9ef8 	sdr	t2,-24840(zero)
81c02498:	1a039ebe 	0x1a039ebe
81c0249c:	eced066c 	swc3	$13,1644(a3)                                     ; Memory Access: Memory read/write operation
81c024a0:	9d80b508 	lwu	zero,-19192(t4)                                     ; Memory Access: Memory read/write operation
81c024a4:	066d1a03 	0x66d1a03
81c024a8:	9705c406 	lhu	a1,-15354(t8)                                     ; Memory Access: Memory read/write operation
81c024ac:	ef009004 	swc3	$0,-28668(t8)                                     ; Memory Access: Memory read/write operation
81c024b0:	65006303 	daddiu	zero,t0,25347
81c024b4:	81c000c8 	lb	zero,200(t6)                                     ; Memory Access: Memory read/write operation
81c024b8:	a1c05a10 	sb	zero,23056(t6)                                     ; Memory Access: Memory read/write operation
81c024bc:	80000000 	lb	zero,0(zero)                                     ; Memory Access: Memory read/write operation
81c024c0:	81c05ab0 	lb	zero,23216(t6)                                     ; Memory Access: Memory read/write operation
81c024c4:	d00463fd 	lld	a0,25597(zero)
81c024c8:	480768ff 	0x480768ff
81c024cc:	620567b0 	daddi	a1,s0,26544
81c024d0:	06801a03 	b	s4,0x81c08ce0                                       ; Branch: evaluate condition and jump (error state fallback/looping)
81c024d4:	6e006c02 	ldr	zero,27650(s0)
81c024d8:	dac0b209 	ldc2	$0,-19959(s6)                                     ; Memory Access: Memory read/write operation
81c024dc:	b70ab209 	sdr	t2,-19959(t8)
81c024e0:	b40bb50a 	sdr	t3,-19190(zero)
81c024e4:	dca06b01 	ld	zero,27393(a1)
81c024e8:	67b0dfc0 	daddiu	s0,sp,-8256
81c024ec:	1a03da66 	0x1a03da66
81c024f0:	6c020681 	ldr	v0,1665(zero)
81c024f4:	90049705 	lbu	a0,-26875(zero)                                     ; Memory Access: Memory read/write operation
81c024f8:	6303ef00 	daddi	v1,t8,-4352
81c024fc:	81c05c40 	lb	zero,23616(t6)                                     ; Memory Access: Memory read/write operation
81c02500:	a1a02000 	sb	zero,8192(t5)                                ; Hardware Register Access: sb operation targeting REG_TIMER_OSTIMER_CTRL at 0xA1A02000                                     ; Hardware Register Access: operation targeting REG_TIMER_OSTIMER_CTRL at 0xA1A02000
81c02504:	81c05c44 	lb	zero,23620(t6)                                     ; Memory Access: Memory read/write operation
81c02508:	81c02511 	lb	zero,9489(t6)                                     ; Memory Access: Memory read/write operation
81c0250c:	81c05c3c 	lb	zero,23612(t6)                                     ; Memory Access: Memory read/write operation
81c02510:	620563fd 	daddi	a1,s0,25597
81c02514:	9e40b609 	lwu	zero,-18935(s2)                                     ; Memory Access: Memory read/write operation
81c02518:	b3099aa0 	sdl	t1,-25952(t8)
81c0251c:	9b816e00 	lwr	at,28160(a1)                                 ; Hardware Register Access: lw operation targeting REG_SYS_CTRL_RESET_CAUSE at 0xA1A000A0
81c02520:	dbc0b708 	ldc2	$0,-18680(s8)                                     ; Memory Access: Memory read/write operation
81c02524:	daa09f60 	ldc2	$0,-24736(s5)                                     ; Memory Access: Memory read/write operation
81c02528:	1a03e393 	0x1a03e393
81c0252c:	67a6066b 	daddiu	a2,sp,1643
81c02530:	ef009705 	swc3	$0,-26875(t8)                                     ; Memory Access: Memory read/write operation
81c02534:	65006303 	daddiu	zero,t0,25347
81c02538:	81c05574 	lb	zero,21876(t6)                                     ; Memory Access: Memory read/write operation
81c0253c:	a1a02000 	sb	zero,8192(t5)                                ; Hardware Register Access: sb operation targeting REG_TIMER_OSTIMER_CTRL at 0xA1A02000                                     ; Hardware Register Access: operation targeting REG_TIMER_OSTIMER_CTRL at 0xA1A02000
81c02540:	81c05c44 	lb	zero,23620(t6)                                     ; Memory Access: Memory read/write operation
81c02544:	ea8c6aff 	swc2	$12,27391(s4)                                     ; Memory Access: Memory read/write operation
81c02548:	2204b306 	addi	a0,s0,-19706                                     ; Math operation on registers
81c0254c:	6c409b45 	ldr	zero,-25787(v0)
81c02550:	1004ea8d 	b	zero,a0,0x81bfcf88                                       ; Branch: evaluate condition and jump (error state fallback/looping)
81c02554:	6e419b45 	ldr	at,-25787(s2)
81c02558:	eaacedcb 	swc2	$12,-4661(s5)                                     ; Memory Access: Memory read/write operation
81c0255c:	db45e820 	ldc2	$5,-6112(k0)                                     ; Memory Access: Memory read/write operation
81c02560:	a1a24000 	sb	v0,16384(t5)                                     ; Memory Access: Memory read/write operation
81c02564:	ea8c6aff 	swc2	$12,27391(s4)                                     ; Memory Access: Memory read/write operation
81c02568:	2204b306 	addi	a0,s0,-19706                                     ; Math operation on registers
81c0256c:	6c209b45 	ldr	zero,-25787(at)
81c02570:	1004ea8d 	b	zero,a0,0x81bfcfa8                                       ; Branch: evaluate condition and jump (error state fallback/looping)
81c02574:	6e219b45 	ldr	at,-25787(s1)
81c02578:	eaacedcb 	swc2	$12,-4661(s5)                                     ; Memory Access: Memory read/write operation
81c0257c:	db45e820 	ldc2	$5,-6112(k0)                                     ; Memory Access: Memory read/write operation
81c02580:	a1a24000 	sb	v0,16384(t5)                                     ; Memory Access: Memory read/write operation
81c02584:	d10863fb 	lld	t0,25595(t0)
81c02588:	b310b70f 	sdl	s0,-18673(t8)
81c0258c:	6a01b110 	ldl	at,-20208(s0)
81c02590:	6209d007 	daddi	t1,s0,-12281
81c02594:	d980ed4b 	ldc2	$0,-4789(t4)                                     ; Memory Access: Memory read/write operation
81c02598:	dba2b10e 	ldc2	$2,-20210(sp)                                     ; Memory Access: Memory read/write operation
81c0259c:	dfaddfa2 	ld	t5,-8286(sp)
81c025a0:	670499d2 	daddiu	a0,t8,-26158
81c025a4:	6c016d00 	ldr	at,27904(zero)
81c025a8:	0ceb1a03 	j	0x83ac680c                                       ; Jump or subroutine call
81c025ac:	9404d604 	lhu	a0,-10748(zero)                                     ; Memory Access: Memory read/write operation
81c025b0:	d952ea8d 	ldc2	$18,-5491(t2)                                     ; Memory Access: Memory read/write operation
81c025b4:	b2089861 	sdl	t0,-26527(s0)
81c025b8:	9709da60 	lhu	t1,-9632(t8)                                     ; Memory Access: Memory read/write operation
81c025bc:	90079108 	lbu	a3,-28408(zero)                                     ; Memory Access: Memory read/write operation
81c025c0:	6305ef00 	daddi	a1,t8,-4352
81c025c4:	a1a03000 	sb	zero,12288(t5)                                     ; Memory Access: Memory read/write operation
81c025c8:	a1a24000 	sb	v0,16384(t5)                                     ; Memory Access: Memory read/write operation
81c025cc:	81c05ab8 	lb	zero,23224(t6)                                     ; Memory Access: Memory read/write operation
81c025d0:	a1a0f000 	sb	zero,-4096(t5)                                     ; Memory Access: Memory read/write operation
81c025d4:	81c0598c 	lb	zero,22924(t6)                                     ; Memory Access: Memory read/write operation
81c025d8:	6a01b404 	ldl	at,-19452(s0)
81c025dc:	ea6c9c60 	swc2	$12,-25504(s3)                                     ; Memory Access: Memory read/write operation
81c025e0:	e8202afb 	swc2	$0,11003(at)                                     ; Memory Access: Memory read/write operation
81c025e4:	65006500 	daddiu	zero,t0,25856
81c025e8:	a1a2500c 	sb	v0,20492(t5)                                     ; Memory Access: Memory read/write operation
81c025ec:	6a08b404 	ldl	t0,-19452(s0)
81c025f0:	ea6c9c60 	swc2	$12,-25504(s3)                                     ; Memory Access: Memory read/write operation
81c025f4:	e82022fb 	swc2	$0,8955(at)                                     ; Memory Access: Memory read/write operation
81c025f8:	65006500 	daddiu	zero,t0,25856
81c025fc:	a1a2500c 	sb	v0,20492(t5)                                     ; Memory Access: Memory read/write operation
81c02600:	ee4c6aff 	swc3	$12,27391(s2)                                     ; Memory Access: Memory read/write operation
81c02604:	2208eaec 	addi	t0,s0,-5396                                     ; Math operation on registers
81c02608:	6b02b70e 	ldl	v0,-18674(t8)
81c0260c:	b30edf60 	sdl	t6,-8352(t8)
81c02610:	9be06a02 	lwr	zero,27138(ra)                                     ; Memory Access: Memory read/write operation
81c02614:	22fbeaec 	addi	k1,s7,-5396                                     ; Math operation on registers
81c02618:	9ae0b20b 	lwr	zero,-19957(s7)                                     ; Memory Access: Memory read/write operation
81c0261c:	eaec6a04 	swc2	$12,27140(s7)                                     ; Memory Access: Memory read/write operation
81c02620:	10092afb 	b	zero,t1,0x81c0d210                                       ; Branch: evaluate condition and jump (error state fallback/looping)
81c02624:	a360e44d 	sb	zero,-7091(k1)                                     ; Memory Access: Memory read/write operation
81c02628:	6fff2603 	ldr	ra,9731(ra)
81c0262c:	ebed4f01 	swc2	$13,20225(ra)                                     ; Memory Access: Memory read/write operation
81c02630:	4a01b706 	c2	0x1b706
81c02634:	eaa3df60 	swc2	$3,-8352(s5)                                     ; Memory Access: Memory read/write operation
81c02638:	e82061f5 	swc2	$0,25077(at)                                     ; Memory Access: Memory read/write operation
81c0263c:	65006a01 	daddiu	zero,t0,27137
81c02640:	a1a25018 	sb	v0,20504(t5)                                     ; Memory Access: Memory read/write operation
81c02644:	a1a2500c 	sb	v0,20492(t5)                                     ; Memory Access: Memory read/write operation
81c02648:	a1a25008 	sb	v0,20488(t5)                                     ; Memory Access: Memory read/write operation
81c0264c:	d10863fb 	lld	t0,25595(t0)
81c02650:	6724d007 	daddiu	a0,t9,-12281
81c02654:	b4216209 	sdr	at,25097(at)
81c02658:	6aff9c80 	ldl	ra,-25472(s7)
81c0265c:	6b1ff7ff 	ldl	ra,-2049(t8)
81c02660:	e94c741c 	swc2	$12,29724(t2)                                     ; Memory Access: Memory read/write operation
81c02664:	eacc6705 	swc2	$12,26373(s6)                                     ; Memory Access: Memory read/write operation
81c02668:	6002ebec 	daddi	v0,zero,-5140
81c0266c:	6104742c 	daddi	a0,t0,29740
81c02670:	a6a0b61b 	sh	zero,-18917(s5)                                     ; Memory Access: Memory read/write operation
81c02674:	252aed2e 	addiu	t2,t1,-4818                                     ; Math operation on registers
81c02678:	1a03d205 	0x1a03d205
81c0267c:	d3040976 	lld	a0,2422(t8)
81c02680:	92059304 	lbu	a1,-27900(s0)                                     ; Memory Access: Memory read/write operation
81c02684:	b717230b 	sdr	s7,8971(t8)
81c02688:	9f80b517 	lwu	zero,-19177(gp)                                     ; Memory Access: Memory read/write operation
81c0268c:	ecac3360 	swc3	$12,13152(a1)                                     ; Memory Access: Memory read/write operation
81c02690:	df60eb8d 	ld	zero,-5235(k1)
81c02694:	09761a03 	j	0x85d8680c                                       ; Jump or subroutine call
81c02698:	9205d205 	lbu	a1,-11771(s0)                                     ; Memory Access: Memory read/write operation
81c0269c:	30002a05 	andi	zero,zero,0x2a05                                     ; Bitwise isolation/masking operation
81c026a0:	e82db212 	swc2	$13,-19950(at)                                     ; Memory Access: Memory read/write operation
81c026a4:	1012da00 	b	zero,s2,0x81bf8ea8                                       ; Branch: evaluate condition and jump (error state fallback/looping)
81c026a8:	61037201 	daddi	v1,t0,29185
81c026ac:	b2103120 	sdl	s0,12576(s0)
81c026b0:	72021004 	0x72021004
81c026b4:	b20f6106 	sdl	t7,24838(s0)
81c026b8:	b60c3120 	sdr	t4,12576(s0)
81c026bc:	de20e94d 	ld	zero,-5811(s1)
81c026c0:	b70d1005 	sdr	t5,4101(t8)
81c026c4:	3120b309 	andi	zero,t1,0xb309                                     ; Bitwise isolation/masking operation
81c026c8:	dbe0ef2c 	ldc2	$0,-4308(ra)                                     ; Memory Access: Memory read/write operation
81c026cc:	91089709 	lbu	t0,-26871(t0)                                     ; Memory Access: Memory read/write operation
81c026d0:	ef009007 	swc3	$0,-28665(t8)                                     ; Memory Access: Memory read/write operation
81c026d4:	65006305 	daddiu	zero,t0,25349
81c026d8:	81c06f44 	lb	zero,28484(t6)                                     ; Memory Access: Memory read/write operation
81c026dc:	81c05994 	lb	zero,22932(t6)                                     ; Memory Access: Memory read/write operation
81c026e0:	a1a25004 	sb	v0,20484(t5)                                     ; Memory Access: Memory read/write operation
81c026e4:	fffe00ff 	sd	s8,255(ra)
81c026e8:	a1a25000 	sb	v0,20480(t5)                                     ; Memory Access: Memory read/write operation
81c026ec:	00010000 	sll	zero,at,0x0
81c026f0:	00030000 	sll	zero,v1,0x0
81c026f4:	000fff00 	sll	ra,t7,0x1c
81c026f8:	d00563fc 	lld	a1,25596(zero)
81c026fc:	6207b016 	daddi	a3,s0,-20458
81c02700:	b716d106 	sdr	s6,-12026(t8)
81c02704:	672498c0 	daddiu	a0,t9,-26432
81c02708:	edcbeeec 	swc3	$11,-4372(t6)                                     ; Memory Access: Memory read/write operation
81c0270c:	f7c0edcd 	sdc1	$f0,-4659(s8)                                     ; Memory Access: Memory read/write operation
81c02710:	1a0334a2 	0x1a0334a2
81c02714:	30840976 	andi	a0,a0,0x976                                     ; Bitwise isolation/masking operation
81c02718:	6b01b211 	ldl	at,-19951(t8)
81c0271c:	09761a03 	j	0x85d8680c                                       ; Jump or subroutine call
81c02720:	6c05da60 	ldr	a1,-9632(zero)
81c02724:	67d067b1 	daddiu	s0,s8,26545
81c02728:	09931a03 	j	0x864c680c                                       ; Jump or subroutine call
81c0272c:	1a036f01 	0x1a036f01
81c02730:	65000976 	daddiu	zero,t0,2422
81c02734:	6908b20b 	ldl	t0,-19957(t0)
81c02738:	e96c9a60 	swc2	$12,-26016(t3)                                     ; Memory Access: Memory read/write operation
81c0273c:	1a0329fb 	0x1a0329fb
81c02740:	65000976 	daddiu	zero,t0,2422
81c02744:	9707b408 	lhu	a3,-19448(t8)                                     ; Memory Access: Memory read/write operation
81c02748:	91069c40 	lbu	a2,-25536(t0)                                     ; Memory Access: Memory read/write operation
81c0274c:	ef009005 	swc3	$0,-28667(t8)                                     ; Memory Access: Memory read/write operation
81c02750:	65006304 	daddiu	zero,t0,25348
81c02754:	a1a25014 	sb	v0,20500(t5)                                     ; Memory Access: Memory read/write operation
81c02758:	00010000 	sll	zero,at,0x0
81c0275c:	a1a25018 	sb	v0,20504(t5)                                     ; Memory Access: Memory read/write operation
81c02760:	a1a2500c 	sb	v0,20492(t5)                                     ; Memory Access: Memory read/write operation
81c02764:	a1a25010 	sb	v0,20496(t5)                                     ; Memory Access: Memory read/write operation
81c02768:	d00463fd 	lld	a0,25597(zero)
81c0276c:	b4176704 	sdr	s7,26372(zero)
81c02770:	1a036205 	0x1a036205
81c02774:	9c400976 	lwu	zero,2422(v0)                                     ; Memory Access: Memory read/write operation
81c02778:	6b03b215 	ldl	v1,-19947(t8)
81c0277c:	09761a03 	j	0x85d8680c                                       ; Jump or subroutine call
81c02780:	6c9fda60 	ldr	ra,-9632(a0)
81c02784:	6e0067b0 	ldr	zero,26544(s0)
81c02788:	09931a03 	j	0x864c680c                                       ; Jump or subroutine call
81c0278c:	1a036f03 	0x1a036f03
81c02790:	65000976 	daddiu	zero,t0,2422
81c02794:	6d08b60f 	ldr	t0,-18929(t0)
81c02798:	ed0c9e00 	swc3	$12,-25088(t0)                                     ; Memory Access: Memory read/write operation
81c0279c:	1a032dfb 	0x1a032dfb
81c027a0:	65000976 	daddiu	zero,t0,2422
81c027a4:	6cffb30c 	ldr	ra,-19700(a3)
81c027a8:	b70c9bc0 	sdr	t4,-25664(t8)
81c027ac:	dfc0ee8c 	ld	zero,-4468(s8)
81c027b0:	ed8c9ba0 	swc3	$12,-25696(t4)                                     ; Memory Access: Memory read/write operation
81c027b4:	9b40dfa1 	lwr	zero,-8287(k0)                                     ; Memory Access: Memory read/write operation
81c027b8:	df42ea8c 	ld	v0,-5492(k0)
81c027bc:	67509705 	daddiu	s0,k0,-26875
81c027c0:	ef009004 	swc3	$0,-28668(t8)                                     ; Memory Access: Memory read/write operation
81c027c4:	65006303 	daddiu	zero,t0,25347
81c027c8:	a1a25014 	sb	v0,20500(t5)                                     ; Memory Access: Memory read/write operation
81c027cc:	a1a25018 	sb	v0,20504(t5)                                     ; Memory Access: Memory read/write operation
81c027d0:	a1a2500c 	sb	v0,20492(t5)                                     ; Memory Access: Memory read/write operation
81c027d4:	a1a25010 	sb	v0,20496(t5)                                     ; Memory Access: Memory read/write operation
81c027d8:	81c06f44 	lb	zero,28484(t6)                                     ; Memory Access: Memory read/write operation
81c027dc:	6bff63fa 	ldl	ra,25594(ra)
81c027e0:	620bd009 	daddi	t3,s0,-12279
81c027e4:	ebacd10a 	swc2	$12,-12022(sp)                                     ; Memory Access: Memory read/write operation
81c027e8:	6704b525 	daddiu	a0,t8,-19163
81c027ec:	b2259d80 	sdl	a1,-25216(s1)
81c027f0:	9a4074c2 	lwr	zero,29890(s2)                                     ; Memory Access: Memory read/write operation
81c027f4:	748c6008 	j	0x82318021                                       ; Jump or subroutine call
81c027f8:	9d816104 	lwu	at,24836(t4)                                     ; Memory Access: Memory read/write operation
81c027fc:	61097425 	daddi	t1,t0,29733
81c02800:	747f1002 	j	0x81fc4009                                       ; Jump or subroutine call
81c02804:	679d610d 	daddiu	sp,gp,24845
81c02808:	6b00c470 	ldl	zero,-15248(t8)
81c0280c:	6901c471 	ldl	at,-15247(t0)
81c02810:	6d41100c 	ldr	at,4108(t2)
81c02814:	2c04ecae 	sltiu	a0,zero,-4946
81c02818:	c67067dd 	lwc1	$f16,26589(s3)                                     ; Memory Access: Memory read/write operation
81c0281c:	1004c691 	b	zero,a0,0x81bf4264                                       ; Branch: evaluate condition and jump (error state fallback/looping)
81c02820:	690067fd 	ldl	zero,26621(t0)
81c02824:	c771c730 	lwc1	$f17,-14544(k1)                                     ; Memory Access: Memory read/write operation
81c02828:	1a036902 	0x1a036902
81c0282c:	d2060976 	lld	a2,2422(s0)
81c02830:	6e03b515 	ldr	v1,-19179(s0)
81c02834:	09761a03 	j	0x85d8680c                                       ; Jump or subroutine call
81c02838:	6e00ddc0 	ldr	zero,-8768(s0)
81c0283c:	6c0667e6 	ldr	a2,26598(zero)
81c02840:	09931a03 	j	0x864c680c                                       ; Jump or subroutine call
81c02844:	940667b0 	lhu	a2,26544(zero)                                     ; Memory Access: Memory read/write operation
81c02848:	33826a01 	andi	v0,gp,0x6a01                                     ; Bitwise isolation/masking operation
81c0284c:	04043662 	0x4043662
81c02850:	ee4c67b1 	swc3	$12,26545(s2)                                     ; Memory Access: Memory read/write operation
81c02854:	09801a03 	j	0x8600680c                                       ; Jump or subroutine call
81c02858:	6e0067e2 	ldr	zero,26594(s0)
81c0285c:	67b06c01 	daddiu	s0,sp,27649
81c02860:	09931a03 	j	0x864c680c                                       ; Jump or subroutine call
81c02864:	1a0367e6 	0x1a0367e6
81c02868:	679009be 	daddiu	s0,gp,2494
81c0286c:	ef4c6f01 	swc3	$12,28417(k0)                                     ; Memory Access: Memory read/write operation
81c02870:	970b2ffa 	lhu	t3,12282(t8)                                     ; Memory Access: Memory read/write operation
81c02874:	9009910a 	lbu	t1,-28406(zero)                                     ; Memory Access: Memory read/write operation
81c02878:	6306ef00 	daddi	a2,t8,-4352
81c0287c:	81c06f44 	lb	zero,28484(t6)                                     ; Memory Access: Memory read/write operation
81c02880:	a1a25014 	sb	v0,20500(t5)                                     ; Memory Access: Memory read/write operation
81c02884:	a1a25018 	sb	v0,20504(t5)                                     ; Memory Access: Memory read/write operation
81c02888:	a280b20c 	sb	zero,-19956(s4)                                     ; Memory Access: Memory read/write operation
81c0288c:	63fd6d00 	daddi	sp,ra,27904
81c02890:	620567c5 	daddi	a1,s0,26565
81c02894:	09931a03 	j	0x864c680c                                       ; Jump or subroutine call
81c02898:	6d0067e5 	ldr	zero,26597(t0)
81c0289c:	67e567c5 	daddiu	a1,ra,26565
81c028a0:	09931a03 	j	0x864c680c                                       ; Jump or subroutine call
81c028a4:	6d006c66 	ldr	zero,27750(t0)
81c028a8:	6c9967e5 	ldr	t9,26597(a0)
81c028ac:	09931a03 	j	0x864c680c                                       ; Jump or subroutine call
81c028b0:	970567c5 	lhu	a1,26565(t8)                                     ; Memory Access: Memory read/write operation
81c028b4:	6303ef00 	daddi	v1,t8,-4352
81c028b8:	81c05998 	lb	zero,22936(t6)                                     ; Memory Access: Memory read/write operation
81c028bc:	620563fd 	daddi	a1,s0,25597
81c028c0:	0a221a03 	j	0x8888680c                                       ; Jump or subroutine call
81c028c4:	97056c00 	lhu	a1,27648(t8)                                     ; Memory Access: Memory read/write operation
81c028c8:	6303ef00 	daddi	v1,t8,-4352
81c028cc:	6b0263fb 	ldl	v0,25595(t8)
81c028d0:	6209b231 	daddi	t1,s0,-19919
81c028d4:	d007d108 	lld	a3,-12024(zero)
81c028d8:	1a03da60 	0x1a03da60
81c028dc:	67240976 	daddiu	a0,t9,2422
81c028e0:	097b1a03 	j	0x85ec680c                                       ; Jump or subroutine call
81c028e4:	1a036500 	0x1a036500
81c028e8:	65000976 	daddiu	zero,t0,2422
81c028ec:	6cff6e00 	ldr	ra,28160(a3)
81c028f0:	1a0367e6 	0x1a0367e6
81c028f4:	67b10993 	daddiu	s1,sp,2451
81c028f8:	6e00b028 	ldr	zero,-20440(s0)
81c028fc:	b52898e0 	sdr	t0,-26400(t1)
81c02900:	d704b028 	ldc1	$f4,-20440(t8)                                     ; Memory Access: Memory read/write operation
81c02904:	9204ddc0 	lbu	a0,-8768(s0)                                     ; Memory Access: Memory read/write operation
81c02908:	09761a03 	j	0x85d8680c                                       ; Jump or subroutine call
81c0290c:	1a03e82c 	0x1a03e82c
81c02910:	6500097b 	daddiu	zero,t0,2427
81c02914:	67e66e00 	daddiu	a2,ra,28160
81c02918:	1a036c06 	0x1a036c06
81c0291c:	67b00993 	daddiu	s0,sp,2451
81c02920:	097b1a03 	j	0x85ec680c                                       ; Jump or subroutine call
81c02924:	6e006500 	ldr	zero,25856(s0)
81c02928:	67b06cd8 	daddiu	s0,sp,27864
81c0292c:	09931a03 	j	0x864c680c                                       ; Jump or subroutine call
81c02930:	b41d67e6 	sdr	sp,26598(zero)
81c02934:	9c60b21d 	lwu	zero,-19939(v1)                                     ; Memory Access: Memory read/write operation
81c02938:	1a03da60 	0x1a03da60
81c0293c:	679009be 	daddiu	s0,gp,2494
81c02940:	9404d204 	lhu	a0,-11772(zero)                                     ; Memory Access: Memory read/write operation
81c02944:	ecac6d01 	swc3	$12,27905(a1)                                     ; Memory Access: Memory read/write operation
81c02948:	1a032cf8 	0x1a032cf8
81c0294c:	679009be 	daddiu	s0,gp,2494
81c02950:	6e002214 	ldr	zero,8724(s0)
81c02954:	6c0667e6 	ldr	a2,26598(zero)
81c02958:	09931a03 	j	0x864c680c                                       ; Jump or subroutine call
81c0295c:	6e0067b0 	ldr	zero,26544(s0)
81c02960:	67b06cd8 	daddiu	s0,sp,27864
81c02964:	09931a03 	j	0x864c680c                                       ; Jump or subroutine call
81c02968:	1a0367e6 	0x1a0367e6
81c0296c:	679009be 	daddiu	s0,gp,2494
81c02970:	9604d204 	lhu	a0,-11772(s0)                                     ; Memory Access: Memory read/write operation
81c02974:	eeec6f01 	swc3	$12,28417(s7)                                     ; Memory Access: Memory read/write operation
81c02978:	b00d2ef8 	sdl	t5,12024(zero)
81c0297c:	6e00a080 	ldr	zero,-24448(s0)
81c02980:	1a0367b1 	0x1a0367b1
81c02984:	67e60993 	daddiu	a2,ra,2451
81c02988:	6a019709 	ldl	at,-26871(s0)
81c0298c:	90079108 	lbu	a3,-28408(zero)                                     ; Memory Access: Memory read/write operation
81c02990:	6305ef00 	daddi	a1,t8,-4352
81c02994:	81c05c4c 	lb	zero,23628(t6)                                     ; Memory Access: Memory read/write operation
81c02998:	a1a25014 	sb	v0,20500(t5)                                     ; Memory Access: Memory read/write operation
81c0299c:	81c05abc 	lb	zero,23228(t6)                                     ; Memory Access: Memory read/write operation
81c029a0:	00ffffff 	0xffffff
81c029a4:	a1a25000 	sb	v0,20480(t5)                                     ; Memory Access: Memory read/write operation
81c029a8:	81c05c50 	lb	zero,23632(t6)                                     ; Memory Access: Memory read/write operation
81c029ac:	81c05994 	lb	zero,22932(t6)                                     ; Memory Access: Memory read/write operation
81c029b0:	6b0263fb 	ldl	v0,25595(t8)
81c029b4:	6209b231 	daddi	t1,s0,-19919
81c029b8:	d007d108 	lld	a3,-12024(zero)
81c029bc:	1a03da60 	0x1a03da60
81c029c0:	67240976 	daddiu	a0,t9,2422
81c029c4:	097b1a03 	j	0x85ec680c                                       ; Jump or subroutine call
81c029c8:	1a036500 	0x1a036500
81c029cc:	65000976 	daddiu	zero,t0,2422
81c029d0:	6cff6e00 	ldr	ra,28160(a3)
81c029d4:	1a0367e6 	0x1a0367e6
81c029d8:	67b10993 	daddiu	s1,sp,2451
81c029dc:	6e00b028 	ldr	zero,-20440(s0)
81c029e0:	b52898e0 	sdr	t0,-26400(t1)
81c029e4:	d704b028 	ldc1	$f4,-20440(t8)                                     ; Memory Access: Memory read/write operation
81c029e8:	9204ddc0 	lbu	a0,-8768(s0)                                     ; Memory Access: Memory read/write operation
81c029ec:	09761a03 	j	0x85d8680c                                       ; Jump or subroutine call
81c029f0:	1a03e82c 	0x1a03e82c
81c029f4:	6500097b 	daddiu	zero,t0,2427
81c029f8:	67e66e00 	daddiu	a2,ra,28160
81c029fc:	1a036c06 	0x1a036c06
81c02a00:	67b00993 	daddiu	s0,sp,2451
81c02a04:	097b1a03 	j	0x85ec680c                                       ; Jump or subroutine call
81c02a08:	6e006500 	ldr	zero,25856(s0)
81c02a0c:	67b06c20 	daddiu	s0,sp,27680
81c02a10:	09931a03 	j	0x864c680c                                       ; Jump or subroutine call
81c02a14:	b41d67e6 	sdr	sp,26598(zero)
81c02a18:	9c60b21d 	lwu	zero,-19939(v1)                                     ; Memory Access: Memory read/write operation
81c02a1c:	1a03da60 	0x1a03da60
81c02a20:	679009be 	daddiu	s0,gp,2494
81c02a24:	9404d204 	lhu	a0,-11772(zero)                                     ; Memory Access: Memory read/write operation
81c02a28:	ecac6d01 	swc3	$12,27905(a1)                                     ; Memory Access: Memory read/write operation
81c02a2c:	1a032cf8 	0x1a032cf8
81c02a30:	679009be 	daddiu	s0,gp,2494
81c02a34:	6e002214 	ldr	zero,8724(s0)
81c02a38:	6c0667e6 	ldr	a2,26598(zero)
81c02a3c:	09931a03 	j	0x864c680c                                       ; Jump or subroutine call
81c02a40:	6e0067b0 	ldr	zero,26544(s0)
81c02a44:	67b06c20 	daddiu	s0,sp,27680
81c02a48:	09931a03 	j	0x864c680c                                       ; Jump or subroutine call
81c02a4c:	1a0367e6 	0x1a0367e6
81c02a50:	679009be 	daddiu	s0,gp,2494
81c02a54:	9604d204 	lhu	a0,-11772(s0)                                     ; Memory Access: Memory read/write operation
81c02a58:	eeec6f01 	swc3	$12,28417(s7)                                     ; Memory Access: Memory read/write operation
81c02a5c:	b00d2ef8 	sdl	t5,12024(zero)
81c02a60:	6e00a080 	ldr	zero,-24448(s0)
81c02a64:	1a0367b1 	0x1a0367b1
81c02a68:	67e60993 	daddiu	a2,ra,2451
81c02a6c:	6a009709 	ldl	zero,-26871(s0)
81c02a70:	90079108 	lbu	a3,-28408(zero)                                     ; Memory Access: Memory read/write operation
81c02a74:	6305ef00 	daddi	a1,t8,-4352
81c02a78:	81c05c4c 	lb	zero,23628(t6)                                     ; Memory Access: Memory read/write operation
81c02a7c:	a1a25014 	sb	v0,20500(t5)                                     ; Memory Access: Memory read/write operation
81c02a80:	81c05abc 	lb	zero,23228(t6)                                     ; Memory Access: Memory read/write operation
81c02a84:	00ffffff 	0xffffff
81c02a88:	a1a25000 	sb	v0,20480(t5)                                     ; Memory Access: Memory read/write operation
81c02a8c:	81c05c50 	lb	zero,23632(t6)                                     ; Memory Access: Memory read/write operation
81c02a90:	81c05994 	lb	zero,22932(t6)                                     ; Memory Access: Memory read/write operation
81c02a94:	620563fd 	daddi	a1,s0,25597
81c02a98:	0a6c1a03 	j	0x89b0680c                                       ; Jump or subroutine call
81c02a9c:	97056500 	lhu	a1,25856(t8)                                     ; Memory Access: Memory read/write operation
81c02aa0:	ef006a01 	swc3	$0,27137(t8)                                     ; Memory Access: Memory read/write operation
81c02aa4:	65006303 	daddiu	zero,t0,25347
81c02aa8:	d40c63fa 	ldc1	$f12,25594(zero)                                     ; Memory Access: Memory read/write operation
81c02aac:	b4476b01 	sdr	a3,27393(v0)
81c02ab0:	d10a620b 	lld	t2,25099(t0)
81c02ab4:	d50dd009 	ldc1	$f13,-12279(t0)                                     ; Memory Access: Memory read/write operation
81c02ab8:	dc60d60e 	ld	zero,-10738(v1)
81c02abc:	1a03267e 	0x1a03267e
81c02ac0:	65000976 	daddiu	zero,t0,2422
81c02ac4:	097b1a03 	j	0x85ec680c                                       ; Jump or subroutine call
81c02ac8:	1a036500 	0x1a036500
81c02acc:	65000976 	daddiu	zero,t0,2422
81c02ad0:	9ea0b63f 	lwu	zero,-18881(s5)                                     ; Memory Access: Memory read/write operation
81c02ad4:	6006751c 	daddi	a2,zero,29980
81c02ad8:	950c6e00 	lhu	t4,28160(t0)                                     ; Memory Access: Memory read/write operation
81c02adc:	1a036cff 	0x1a036cff
81c02ae0:	67e60993 	daddiu	a2,ra,2451
81c02ae4:	b43ab13b 	sdr	k0,-20165(at)
81c02ae8:	9c409900 	lwu	zero,-26368(v0)                                     ; Memory Access: Memory read/write operation
81c02aec:	9305d005 	lbu	a1,-12283(t8)                                     ; Memory Access: Memory read/write operation
81c02af0:	72c26f01 	0x72c26f01
81c02af4:	600febec 	daddi	t7,zero,-5140
81c02af8:	6104728c 	daddi	a0,t0,29324
81c02afc:	72259c41 	0x72259c41
81c02b00:	1009610c 	b	zero,t1,0x81c1af34                                       ; Branch: evaluate condition and jump (error state fallback/looping)
81c02b04:	610372f8 	daddi	v1,t0,29432
81c02b08:	75429ca1 	j	0x850a7285                                       ; Jump or subroutine call
81c02b0c:	721c1001 	0x721c1001
81c02b10:	61036902 	daddi	v1,t0,26882
81c02b14:	69381003 	ldl	t8,4099(t1)
81c02b18:	69321001 	ldl	s2,4097(t1)
81c02b1c:	69022b02 	ldl	v0,11010(t0)
81c02b20:	71381002 	0x71381002
81c02b24:	6e006003 	ldr	zero,24579(s0)
81c02b28:	1003d606 	b	zero,v1,0x81bf8344                                       ; Branch: evaluate condition and jump (error state fallback/looping)
81c02b2c:	6e016c03 	ldr	at,27651(s0)
81c02b30:	970cd406 	lhu	t4,-11258(t8)                                     ; Memory Access: Memory read/write operation
81c02b34:	7138b028 	0x7138b028
81c02b38:	6f01e8ec 	ldr	at,-5908(t8)
81c02b3c:	34026110 	li	v0,0x6110                                      ; Load Immediate pseudo-instruction
81c02b40:	328267bd 	andi	v0,s4,0x67bd                                     ; Bitwise isolation/masking operation
81c02b44:	c512c591 	lwc1	$f18,-14959(t0)                                     ; Memory Access: Memory read/write operation
81c02b48:	0404c550 	0x404c550
81c02b4c:	1a036d03 	0x1a036d03
81c02b50:	d3070980 	lld	a3,2432(t8)
81c02b54:	09761a03 	j	0x85d8680c                                       ; Jump or subroutine call
81c02b58:	93076500 	lbu	a3,25856(t8)                                     ; Memory Access: Memory read/write operation
81c02b5c:	940d6f00 	lhu	t5,28416(zero)                                     ; Memory Access: Memory read/write operation
81c02b60:	1a03950e 	0x1a03950e
81c02b64:	67c30980 	daddiu	v1,s8,2432
81c02b68:	09761a03 	j	0x85d8680c                                       ; Jump or subroutine call
81c02b6c:	1a036500 	0x1a036500
81c02b70:	6500097b 	daddiu	zero,t0,2427
81c02b74:	6e001014 	ldr	zero,4116(s0)
81c02b78:	6c0667e6 	ldr	a2,26598(zero)
81c02b7c:	09931a03 	j	0x864c680c                                       ; Jump or subroutine call
81c02b80:	960667b0 	lhu	a2,26544(s0)                                     ; Memory Access: Memory read/write operation
81c02b84:	67b06791 	daddiu	s0,sp,26513
81c02b88:	09931a03 	j	0x864c680c                                       ; Jump or subroutine call
81c02b8c:	1a036f00 	0x1a036f00
81c02b90:	679009be 	daddiu	s0,gp,2494
81c02b94:	9605d205 	lhu	a1,-11771(s0)                                     ; Memory Access: Memory read/write operation
81c02b98:	ee6c6b01 	swc3	$12,27393(s3)                                     ; Memory Access: Memory read/write operation
81c02b9c:	b40f2ef8 	sdr	t7,12024(zero)
81c02ba0:	9ca06a02 	lwu	zero,27138(a1)                                     ; Memory Access: Memory read/write operation
81c02ba4:	9705d505 	lhu	a1,-11003(t8)                                     ; Memory Access: Memory read/write operation
81c02ba8:	27e5ef4c 	addiu	a1,ra,-4276                                     ; Math operation on registers
81c02bac:	a080b00c 	sb	zero,-20468(a0)                                     ; Memory Access: Memory read/write operation
81c02bb0:	9606950c 	lhu	a2,-27380(s0)                                     ; Memory Access: Memory read/write operation
81c02bb4:	09931a03 	j	0x864c680c                                       ; Jump or subroutine call
81c02bb8:	970b6f00 	lhu	t3,28416(t8)                                     ; Memory Access: Memory read/write operation
81c02bbc:	910a6a01 	lbu	t2,27137(t0)                                     ; Memory Access: Memory read/write operation
81c02bc0:	ef009009 	swc3	$0,-28663(t8)                                     ; Memory Access: Memory read/write operation
81c02bc4:	65006306 	daddiu	zero,t0,25350
81c02bc8:	81c05c4c 	lb	zero,23628(t6)                                     ; Memory Access: Memory read/write operation
81c02bcc:	81c06f44 	lb	zero,28484(t6)                                     ; Memory Access: Memory read/write operation
81c02bd0:	a1a25014 	sb	v0,20500(t5)                                     ; Memory Access: Memory read/write operation
81c02bd4:	00ffffff 	0xffffff
81c02bd8:	a1a2500c 	sb	v0,20492(t5)                                     ; Memory Access: Memory read/write operation
81c02bdc:	81c05994 	lb	zero,22932(t6)                                     ; Memory Access: Memory read/write operation
81c02be0:	9b42b332 	lwr	v0,-19662(k0)                                     ; Memory Access: Memory read/write operation
81c02be4:	ec4a63ff 	swc3	$10,25599(v0)                                     ; Memory Access: Memory read/write operation
81c02be8:	d000d101 	lld	zero,-12031(zero)
81c02bec:	dd806104 	ld	zero,24836(t4)
81c02bf0:	6a00de40 	ldl	zero,-8640(s0)
81c02bf4:	ea831055 	swc2	$3,4181(s4)                                     ; Memory Access: Memory read/write operation
81c02bf8:	9b016106 	lwr	at,24838(t8)                                     ; Memory Access: Memory read/write operation
81c02bfc:	67f0a340 	daddiu	s0,ra,-23744
81c02c00:	6b004aff 	ldl	zero,19199(t8)
81c02c04:	6a001006 	ldl	zero,4102(s0)
81c02c08:	de40dd40 	ld	zero,-8896(s2)
81c02c0c:	1048e845 	b	v0,t0,0x81bfcd24                                       ; Branch: evaluate condition and jump (error state fallback/looping)
81c02c10:	9f274b01 	lwu	a3,19201(t9)                                     ; Memory Access: Memory read/write operation
81c02c14:	6103ec23 	daddi	v1,t0,-5085
81c02c18:	4f1ceb42 	c3	0x11ceb42
81c02c1c:	6f1c61f9 	ldr	gp,25081(t8)
81c02c20:	ea12ebf8 	swc2	$18,-5128(s0)                                     ; Memory Access: Memory read/write operation
81c02c24:	9a22e049 	lwr	v0,-8119(s1)                                     ; Memory Access: Memory read/write operation
81c02c28:	9ae09a61 	lwr	zero,-26015(s7)                                     ; Memory Access: Memory read/write operation
81c02c2c:	e812e978 	swc2	$18,-5768(zero)                                     ; Memory Access: Memory read/write operation
81c02c30:	ec03e0e1 	swc3	$3,-7967(zero)                                     ; Memory Access: Memory read/write operation
81c02c34:	67676003 	daddiu	a3,k1,24579
81c02c38:	10196800 	b	zero,t9,0x81c1cc3c                                       ; Branch: evaluate condition and jump (error state fallback/looping)
81c02c3c:	9a239ae4 	lwr	v1,-25884(s1)                                     ; Memory Access: Memory read/write operation
81c02c40:	eb12ef38 	swc2	$18,-4296(t8)                                     ; Memory Access: Memory read/write operation
81c02c44:	ec63e06d 	swc3	$3,-8083(v1)                                     ; Memory Access: Memory read/write operation
81c02c48:	67706004 	daddiu	s0,k1,24580
81c02c4c:	680167f0 	ldl	at,26608(zero)
81c02c50:	9a06100e 	lwr	a2,4110(s0)                                     ; Memory Access: Memory read/write operation
81c02c54:	e8f89ae5 	swc2	$24,-25883(a3)                                     ; Memory Access: Memory read/write operation
81c02c58:	e321e912 	sc	at,-5870(t9)
81c02c5c:	6105ec03 	daddi	a1,t0,-5117
81c02c60:	dd406a00 	ld	zero,27136(t2)
81c02c64:	e845de40 	swc2	$5,-8640(v0)                                     ; Memory Access: Memory read/write operation
81c02c68:	67e3101b 	daddiu	v1,ra,4123
81c02c6c:	310c6802 	andi	t4,t0,0x6802                                     ; Bitwise isolation/masking operation
81c02c70:	9a42e229 	lwr	v0,-7639(s2)                                     ; Memory Access: Memory read/write operation
81c02c74:	67671001 	daddiu	a3,k1,4097
81c02c78:	ece3e75d 	swc3	$3,-6307(a3)                                     ; Memory Access: Memory read/write operation
81c02c7c:	f7ff60fc 	sdc1	$f31,24828(ra)                                     ; Memory Access: Memory read/write operation
81c02c80:	e88c681f 	swc2	$12,26655(a0)                                     ; Memory Access: Memory read/write operation
81c02c84:	f002200b 	scd	v0,8203(zero)
81c02c88:	ebeb6f00 	swc2	$11,28416(ra)                                     ; Memory Access: Memory read/write operation
81c02c8c:	dd60eb8c 	ld	zero,-5236(t3)
81c02c90:	4b00f002 	c2	0x100f002
81c02c94:	f002de60 	scd	v0,-8608(zero)
81c02c98:	10026a00 	b	zero,v0,0x81c1d49c                                       ; Branch: evaluate condition and jump (error state fallback/looping)
81c02c9c:	dee0dd60 	ld	zero,-8864(s7)
81c02ca0:	90009101 	lbu	zero,-28415(zero)                                     ; Memory Access: Memory read/write operation
81c02ca4:	6301e820 	daddi	at,t8,-6112
81c02ca8:	81c058d8 	lb	zero,22744(t6)                                     ; Memory Access: Memory read/write operation
81c02cac:	620563fd 	daddi	a1,s0,25597
81c02cb0:	097b1a03 	j	0x85ec680c                                       ; Jump or subroutine call
81c02cb4:	1a036500 	0x1a036500
81c02cb8:	65000976 	daddiu	zero,t0,2422
81c02cbc:	67c56d00 	daddiu	a1,s8,27904
81c02cc0:	1a0367e5 	0x1a0367e5
81c02cc4:	6cff0993 	ldr	ra,2451(a3)
81c02cc8:	6cab6d00 	ldr	t3,27904(a1)
81c02ccc:	1a0367c5 	0x1a0367c5
81c02cd0:	67e50993 	daddiu	a1,ra,2451
81c02cd4:	b2086b01 	sdl	t0,27393(s0)
81c02cd8:	09761a03 	j	0x85d8680c                                       ; Jump or subroutine call
81c02cdc:	6500da60 	daddiu	zero,t0,-9632
81c02ce0:	65006500 	daddiu	zero,t0,25856
81c02ce4:	65006500 	daddiu	zero,t0,25856
81c02ce8:	65006500 	daddiu	zero,t0,25856
81c02cec:	97056500 	lhu	a1,25856(t8)                                     ; Memory Access: Memory read/write operation
81c02cf0:	6303ef00 	daddi	v1,t8,-4352
81c02cf4:	81c05c54 	lb	zero,23636(t6)                                     ; Memory Access: Memory read/write operation
81c02cf8:	620563fd 	daddi	a1,s0,25597
81c02cfc:	097b1a03 	j	0x85ec680c                                       ; Jump or subroutine call
81c02d00:	1a036500 	0x1a036500
81c02d04:	65000976 	daddiu	zero,t0,2422
81c02d08:	67c56d00 	daddiu	a1,s8,27904
81c02d0c:	1a0367e5 	0x1a0367e5
81c02d10:	6cab0993 	ldr	t3,2451(a1)
81c02d14:	67c56d00 	daddiu	a1,s8,27904
81c02d18:	1a0367e5 	0x1a0367e5
81c02d1c:	6cff0993 	ldr	ra,2451(a3)
81c02d20:	a580b50c 	sh	zero,-19188(t4)                                     ; Memory Access: Memory read/write operation
81c02d24:	67c56d00 	daddiu	a1,s8,27904
81c02d28:	09931a03 	j	0x864c680c                                       ; Jump or subroutine call
81c02d2c:	6b0067e5 	ldl	zero,26597(t8)
81c02d30:	1a03b209 	0x1a03b209
81c02d34:	da600976 	ldc2	$0,2422(s3)                                     ; Memory Access: Memory read/write operation
81c02d38:	65006500 	daddiu	zero,t0,25856
81c02d3c:	65006500 	daddiu	zero,t0,25856
81c02d40:	65006500 	daddiu	zero,t0,25856
81c02d44:	65006500 	daddiu	zero,t0,25856
81c02d48:	ef009705 	swc3	$0,-26875(t8)                                     ; Memory Access: Memory read/write operation
81c02d4c:	65006303 	daddiu	zero,t0,25347
81c02d50:	81c05994 	lb	zero,22932(t6)                                     ; Memory Access: Memory read/write operation
81c02d54:	81c05c54 	lb	zero,23636(t6)                                     ; Memory Access: Memory read/write operation
81c02d58:	620563fd 	daddi	a1,s0,25597
81c02d5c:	0a2f1a03 	j	0x88bc680c                                       ; Jump or subroutine call
81c02d60:	97056500 	lhu	a1,25856(t8)                                     ; Memory Access: Memory read/write operation
81c02d64:	6303ef00 	daddi	v1,t8,-4352
81c02d68:	63fab24a 	daddi	k0,ra,-19894
81c02d6c:	620bea83 	daddi	t3,s0,-5501
81c02d70:	d009d10a 	lld	t1,-12022(zero)
81c02d74:	d60ed50d 	ldc1	$f14,-10995(s0)                                     ; Memory Access: Memory read/write operation
81c02d78:	e8456001 	swc2	$5,24577(v0)                                     ; Memory Access: Memory read/write operation
81c02d7c:	b647b346 	sdr	a3,-19642(s2)
81c02d80:	9e609b00 	lwu	zero,-25856(s3)                                     ; Memory Access: Memory read/write operation
81c02d84:	ea6be401 	swc2	$11,-7167(s3)                                     ; Memory Access: Memory read/write operation
81c02d88:	6d00940e 	ldr	zero,-27634(t0)
81c02d8c:	dca0ea0c 	ld	zero,-5620(a1)
81c02d90:	950d2240 	lhu	t5,8768(t0)                                     ; Memory Access: Memory read/write operation
81c02d94:	e0b1e265 	sc	s1,-7579(a1)
81c02d98:	613bec23 	daddi	k1,t1,-5085
81c02d9c:	6a1ff7ff 	ldl	ra,-2049(s0)
81c02da0:	f7ffea6c 	sdc1	$f31,-5524(ra)                                     ; Memory Access: Memory read/write operation
81c02da4:	e90c691f 	swc2	$12,26911(t0)                                     ; Memory Access: Memory read/write operation
81c02da8:	ed4bd204 	swc3	$11,-11772(t2)                                     ; Memory Access: Memory read/write operation
81c02dac:	9404ed2c 	lhu	a0,-4820(zero)                                     ; Memory Access: Memory read/write operation
81c02db0:	e4c5e53b 	swc1	$f5,-6853(a2)                                     ; Memory Access: Memory read/write operation
81c02db4:	6a1ff7ff 	ldl	ra,-2049(s0)
81c02db8:	eb23e94c 	swc2	$3,-5812(t9)                                     ; Memory Access: Memory read/write operation
81c02dbc:	6014d105 	daddi	s4,zero,-12027
81c02dc0:	67a76790 	daddiu	a3,sp,26512
81c02dc4:	d30767c3 	lld	a3,26563(t8)
81c02dc8:	0aaa1a03 	j	0x8aa8680c                                       ; Jump or subroutine call
81c02dcc:	960ed706 	lhu	t6,-10490(s0)                                     ; Memory Access: Memory read/write operation
81c02dd0:	9e409307 	lwu	zero,-27897(s2)                                     ; Memory Access: Memory read/write operation
81c02dd4:	e2759706 	sc	s5,-26874(s3)
81c02dd8:	9404dea0 	lhu	a0,-8544(zero)                                     ; Memory Access: Memory read/write operation
81c02ddc:	6e1ff7ff 	ldr	ra,-2049(s0)
81c02de0:	e061e187 	sc	at,-7801(v1)
81c02de4:	e9cce77d 	swc2	$12,-6275(t6)                                     ; Memory Access: Memory read/write operation
81c02de8:	679067a7 	daddiu	s0,gp,26535
81c02dec:	d30767d1 	lld	a3,26577(t8)
81c02df0:	0aaa1a03 	j	0x8aa8680c                                       ; Jump or subroutine call
81c02df4:	950ed706 	lhu	t6,-10490(t0)                                     ; Memory Access: Memory read/write operation
81c02df8:	9dc09706 	lwu	zero,-26874(t6)                                     ; Memory Access: Memory read/write operation
81c02dfc:	e6319307 	swc1	$f17,-27897(s1)                                     ; Memory Access: Memory read/write operation
81c02e00:	223ddd80 	addi	sp,s1,-8832                                     ; Math operation on registers
81c02e04:	9505960d 	lhu	a1,-27123(t0)                                     ; Memory Access: Memory read/write operation
81c02e08:	e6b3e021 	swc1	$f19,-8159(s5)                                     ; Memory Access: Memory read/write operation
81c02e0c:	e725d40d 	swc1	$f5,-11251(t9)                                     ; Memory Access: Memory read/write operation
81c02e10:	67271002 	daddiu	a3,t9,4098
81c02e14:	940d6a01 	lhu	t5,27137(zero)                                     ; Memory Access: Memory read/write operation
81c02e18:	ec7b2435 	swc3	$27,9269(v1)                                     ; Memory Access: Memory read/write operation
81c02e1c:	e8e52b01 	swc2	$5,11009(a3)                                     ; Memory Access: Memory read/write operation
81c02e20:	d704ef12 	ldc1	$f4,-4334(t8)                                     ; Memory Access: Memory read/write operation
81c02e24:	10106f00 	b	zero,s0,0x81c1ea28                                       ; Branch: evaluate condition and jump (error state fallback/looping)
81c02e28:	67b16790 	daddiu	s1,sp,26512
81c02e2c:	d30767c3 	lld	a3,26563(t8)
81c02e30:	0aaa1a03 	j	0x8aa8680c                                       ; Jump or subroutine call
81c02e34:	960ed706 	lhu	t6,-10490(s0)                                     ; Memory Access: Memory read/write operation
81c02e38:	9ea09307 	lwu	zero,-27897(s5)                                     ; Memory Access: Memory read/write operation
81c02e3c:	e571e061 	swc1	$f17,-8095(t3)                                     ; Memory Access: Memory read/write operation
81c02e40:	9706de80 	lhu	a2,-8576(t8)                                     ; Memory Access: Memory read/write operation
81c02e44:	4f01e165 	c3	0x101e165
81c02e48:	ef839404 	swc3	$3,-27644(gp)                                     ; Memory Access: Memory read/write operation
81c02e4c:	2aec6002 	slti	t4,s7,24578
81c02e50:	22151016 	addi	s5,s0,4118                                     ; Math operation on registers
81c02e54:	f7ff970d 	sdc1	$f31,-26867(ra)                                     ; Memory Access: Memory read/write operation
81c02e58:	ef7b6a1f 	swc3	$27,27167(k1)                                     ; Memory Access: Memory read/write operation
81c02e5c:	e8e52b01 	swc2	$5,11009(a3)                                     ; Memory Access: Memory read/write operation
81c02e60:	eb4ceb10 	swc2	$12,-5360(k0)                                     ; Memory Access: Memory read/write operation
81c02e64:	67c3230f 	daddiu	v1,s8,8975
81c02e68:	67b16790 	daddiu	s1,sp,26512
81c02e6c:	0aaa1a03 	j	0x8aa8680c                                       ; Jump or subroutine call
81c02e70:	910ed307 	lbu	t6,-11513(t0)                                     ; Memory Access: Memory read/write operation
81c02e74:	99c09307 	lwr	zero,-27897(t6)                                     ; Memory Access: Memory read/write operation
81c02e78:	d900e661 	ldc2	$0,-6559(t0)                                     ; Memory Access: Memory read/write operation
81c02e7c:	6d092a03 	ldr	t1,10755(t0)
81c02e80:	1001eaab 	b	zero,at,0x81bfd930                                       ; Branch: evaluate condition and jump (error state fallback/looping)
81c02e84:	970b6a00 	lhu	t3,27136(t8)                                     ; Memory Access: Memory read/write operation
81c02e88:	9009910a 	lbu	t1,-28406(zero)                                     ; Memory Access: Memory read/write operation
81c02e8c:	6306ef00 	daddi	a2,t8,-4352
81c02e90:	003fffff 	0x3fffff
81c02e94:	81c05c48 	lb	zero,23624(t6)                                     ; Memory Access: Memory read/write operation
81c02e98:	81c05990 	lb	zero,22928(t6)                                     ; Memory Access: Memory read/write operation
81c02e9c:	63fab230 	daddi	k0,ra,-19920
81c02ea0:	d10aea83 	lld	t2,-5501(t0)
81c02ea4:	620bd009 	daddi	t3,s0,-12279
81c02ea8:	67056724 	daddiu	a1,t8,26404
81c02eac:	e8456001 	swc2	$5,24577(v0)                                     ; Memory Access: Memory read/write operation
81c02eb0:	eb2cb32c 	swc2	$12,-19668(t9)                                     ; Memory Access: Memory read/write operation
81c02eb4:	e8452301 	swc2	$5,8961(v0)                                     ; Memory Access: Memory read/write operation
81c02eb8:	67912808 	daddiu	s1,gp,10248
81c02ebc:	1a030504 	0x1a030504
81c02ec0:	06050af8 	0x6050af8
81c02ec4:	d4079405 	ldc1	$f7,-27643(zero)                                     ; Memory Access: Memory read/write operation
81c02ec8:	b5261012 	sdr	a2,4114(t1)
81c02ecc:	ed0cd007 	swc3	$12,-12281(t0)                                     ; Memory Access: Memory read/write operation
81c02ed0:	e8452501 	swc2	$5,9473(v0)                                     ; Memory Access: Memory read/write operation
81c02ed4:	ee0eb624 	swc3	$14,-18908(s0)                                     ; Memory Access: Memory read/write operation
81c02ed8:	6790260a 	daddiu	s0,gp,9738
81c02edc:	1a030504 	0x1a030504
81c02ee0:	06050af8 	0x6050af8
81c02ee4:	e8ee9704 	swc2	$14,-26876(a3)                                     ; Memory Access: Memory read/write operation
81c02ee8:	e8452002 	swc2	$5,8194(v0)                                     ; Memory Access: Memory read/write operation
81c02eec:	6791100b 	daddiu	s1,gp,4107
81c02ef0:	1a030504 	0x1a030504
81c02ef4:	06050af8 	0x6050af8
81c02ef8:	d2069004 	lld	a2,-28668(s0)
81c02efc:	6801e90e 	ldl	at,-5874(zero)
81c02f00:	e8452120 	swc2	$5,8480(v0)                                     ; Memory Access: Memory read/write operation
81c02f04:	ea2b6908 	swc2	$11,26888(s1)                                     ; Memory Access: Memory read/write operation
81c02f08:	b3181023 	sdl	t8,4131(t8)
81c02f0c:	e2919b80 	sc	s1,-25728(s4)
81c02f10:	f0029206 	scd	v0,-28154(zero)
81c02f14:	61047200 	daddi	a0,t0,29184
81c02f18:	0aa51a03 	j	0x8a94680c                                       ; Jump or subroutine call
81c02f1c:	10036500 	b	zero,v1,0x81c1c320                                       ; Branch: evaluate condition and jump (error state fallback/looping)
81c02f20:	0a331a03 	j	0x88cc680c                                       ; Jump or subroutine call
81c02f24:	e84d6500 	swc2	$13,25856(v0)                                     ; Memory Access: Memory read/write operation
81c02f28:	b20f9405 	sdl	t7,-27643(s0)
81c02f2c:	ec4a6dff 	swc3	$10,28159(v0)                                     ; Memory Access: Memory read/write operation
81c02f30:	6006e8ac 	daddi	a2,zero,-5972
81c02f34:	1a030504 	0x1a030504
81c02f38:	06050af8 	0x6050af8
81c02f3c:	1001d206 	b	zero,at,0x81bf7758                                       ; Branch: evaluate condition and jump (error state fallback/looping)
81c02f40:	9204d204 	lbu	a0,-11772(s0)                                     ; Memory Access: Memory read/write operation
81c02f44:	eaca9607 	swc2	$10,-27129(s6)                                     ; Memory Access: Memory read/write operation
81c02f48:	6a0061e0 	ldl	zero,25056(s0)
81c02f4c:	4af62801 	c2	0xf62801
81c02f50:	910a970b 	lbu	t2,-26869(t0)                                     ; Memory Access: Memory read/write operation
81c02f54:	ef009009 	swc3	$0,-28663(t8)                                     ; Memory Access: Memory read/write operation
81c02f58:	65006306 	daddiu	zero,t0,25350
81c02f5c:	003fffff 	0x3fffff
81c02f60:	e0000000 	sc	zero,0(zero)
81c02f64:	00400000 	0x400000
81c02f68:	81c05c48 	lb	zero,23624(t6)                                     ; Memory Access: Memory read/write operation
81c02f6c:	63fdb212 	daddi	sp,ra,-19950
81c02f70:	6205ea83 	daddi	a1,s0,-5501
81c02f74:	6001d004 	daddi	at,zero,-12284
81c02f78:	b310e845 	sdl	s0,-6075(t8)
81c02f7c:	2301eb8c 	addi	at,t8,-5236                                     ; Math operation on registers
81c02f80:	f580e845 	sdc1	$f0,-6075(t4)                                     ; Memory Access: Memory read/write operation
81c02f84:	6d073382 	ldr	a3,13186(t0)
81c02f88:	5303ebac 	b	t8,v1,0x81bfde3c                                       ; Branch: evaluate condition and jump (error state fallback/looping)
81c02f8c:	6003b20c 	daddi	v1,zero,-19956
81c02f90:	e4019a00 	swc1	$f1,-26112(zero)                                     ; Memory Access: Memory read/write operation
81c02f94:	9aa01009 	lwr	zero,4105(s5)                                     ; Memory Access: Memory read/write operation
81c02f98:	e26f6a03 	sc	t7,27139(s3)
81c02f9c:	f580e4b9 	sdc1	$f0,-6983(t4)                                     ; Memory Access: Memory read/write operation
81c02fa0:	1a033760 	0x1a033760
81c02fa4:	e6e10738 	swc1	$f1,1848(s7)                                     ; Memory Access: Memory read/write operation
81c02fa8:	67509705 	daddiu	s0,k0,-26875
81c02fac:	ef009004 	swc3	$0,-28668(t8)                                     ; Memory Access: Memory read/write operation
81c02fb0:	65006303 	daddiu	zero,t0,25347
81c02fb4:	003fffff 	0x3fffff
81c02fb8:	e0000000 	sc	zero,0(zero)
81c02fbc:	81c05c48 	lb	zero,23624(t6)                                     ; Memory Access: Memory read/write operation
81c02fc0:	d00463fd 	lld	a0,25597(zero)
81c02fc4:	b4146704 	sdr	s4,26372(zero)
81c02fc8:	1a036205 	0x1a036205
81c02fcc:	9c400976 	lwu	zero,2422(v0)                                     ; Memory Access: Memory read/write operation
81c02fd0:	6b01b212 	ldl	at,-19950(t8)
81c02fd4:	09761a03 	j	0x85d8680c                                       ; Jump or subroutine call
81c02fd8:	6e01da60 	ldr	at,-9632(s0)
81c02fdc:	67b06c85 	daddiu	s0,sp,27781
81c02fe0:	09931a03 	j	0x864c680c                                       ; Jump or subroutine call
81c02fe4:	1a0367e6 	0x1a0367e6
81c02fe8:	65000976 	daddiu	zero,t0,2422
81c02fec:	6d08b70c 	ldr	t0,-18676(t0)
81c02ff0:	edcc9fc0 	swc3	$12,-24640(t6)                                     ; Memory Access: Memory read/write operation
81c02ff4:	1a032dfb 	0x1a032dfb
81c02ff8:	65000976 	daddiu	zero,t0,2422
81c02ffc:	b40ab209 	sdr	t2,-19959(zero)
81c03000:	040c1b03 	teqi	zero,6915
81c03004:	1b039a00 	0x1b039a00
81c03008:	6790040c 	daddiu	s0,gp,1036
81c0300c:	90049705 	lbu	a0,-26875(zero)                                     ; Memory Access: Memory read/write operation
81c03010:	6303ef00 	daddi	v1,t8,-4352
81c03014:	a1a25014 	sb	v0,20500(t5)                                     ; Memory Access: Memory read/write operation
81c03018:	a1a25018 	sb	v0,20504(t5)                                     ; Memory Access: Memory read/write operation
81c0301c:	a1a2500c 	sb	v0,20492(t5)                                     ; Memory Access: Memory read/write operation
81c03020:	a1a25010 	sb	v0,20496(t5)                                     ; Memory Access: Memory read/write operation
81c03024:	cccc1111 	lwc3	$12,4369(a2)                                     ; Memory Access: Memory read/write operation
81c03028:	d10863fb 	lld	t0,25595(t0)
81c0302c:	69ffd007 	ldl	ra,-12281(t7)
81c03030:	6c006704 	ldr	zero,26372(zero)
81c03034:	1a036209 	0x1a036209
81c03038:	e9ac09be 	swc2	$12,2494(t5)                                     ; Memory Access: Memory read/write operation
81c0303c:	0bf01a03 	j	0x8fc0680c                                       ; Jump or subroutine call
81c03040:	b7186c00 	sdr	t8,27648(t8)
81c03044:	6c0067dd 	ldr	zero,26589(zero)
81c03048:	9f4067bd 	lwu	zero,26557(k0)                                     ; Memory Access: Memory read/write operation
81c0304c:	1a03c591 	0x1a03c591
81c03050:	c6300976 	lwc1	$f16,2422(s1)                                     ; Memory Access: Memory read/write operation
81c03054:	6b03b214 	ldl	v1,-19948(t8)
81c03058:	09761a03 	j	0x85d8680c                                       ; Jump or subroutine call
81c0305c:	6e00da60 	ldr	zero,-9632(s0)
81c03060:	6c0667e6 	ldr	a2,26598(zero)
81c03064:	09931a03 	j	0x864c680c                                       ; Jump or subroutine call
81c03068:	6e0067b0 	ldr	zero,26544(s0)
81c0306c:	040467e6 	0x40467e6
81c03070:	09801a03 	j	0x8600680c                                       ; Jump or subroutine call
81c03074:	6c816d01 	ldr	at,27905(a0)
81c03078:	6e0367b0 	ldr	v1,26544(s0)
81c0307c:	09931a03 	j	0x864c680c                                       ; Jump or subroutine call
81c03080:	1a036f00 	0x1a036f00
81c03084:	679009be 	daddiu	s0,gp,2494
81c03088:	eb4c6b01 	swc2	$12,27393(k0)                                     ; Memory Access: Memory read/write operation
81c0308c:	1a032bfa 	0x1a032bfa
81c03090:	6c000bf0 	ldr	zero,3056(zero)
81c03094:	91089709 	lbu	t0,-26871(t0)                                     ; Memory Access: Memory read/write operation
81c03098:	ef009007 	swc3	$0,-28665(t8)                                     ; Memory Access: Memory read/write operation
81c0309c:	65006305 	daddiu	zero,t0,25349
81c030a0:	a1a25014 	sb	v0,20500(t5)                                     ; Memory Access: Memory read/write operation
81c030a4:	a1a25018 	sb	v0,20504(t5)                                     ; Memory Access: Memory read/write operation
81c030a8:	d00763fb 	lld	a3,25595(zero)
81c030ac:	67046aff 	daddiu	a0,t8,27391
81c030b0:	6209b32d 	daddi	t1,s0,-19667
81c030b4:	e84cd108 	swc2	$12,-12024(v0)                                     ; Memory Access: Memory read/write operation
81c030b8:	eaac9b60 	swc2	$12,-25760(s5)                                     ; Memory Access: Memory read/write operation
81c030bc:	200cb32b 	addi	t4,zero,-19669                                     ; Math operation on registers
81c030c0:	73c29b60 	0x73c29b60
81c030c4:	738c6012 	0x738c6012
81c030c8:	737f6010 	0x737f6010
81c030cc:	732c600e 	0x732c600e
81c030d0:	600c6968 	daddi	t4,zero,26984
81c030d4:	100a6902 	b	zero,t2,0x81c1d4e0                                       ; Branch: evaluate condition and jump (error state fallback/looping)
81c030d8:	6f2c9bc0 	ldr	t4,-25664(t9)
81c030dc:	5e01eeee 	0x5e01eeee
81c030e0:	698867b8 	ldl	t0,26552(t4)
81c030e4:	e98cecab 	swc2	$12,-4949(t4)                                     ; Memory Access: Memory read/write operation
81c030e8:	69401001 	ldl	zero,4097(t2)
81c030ec:	61027201 	daddi	v0,t0,29185
81c030f0:	1005b31f 	b	zero,a1,0x81befd70                                       ; Branch: evaluate condition and jump (error state fallback/looping)
81c030f4:	72036b00 	0x72036b00
81c030f8:	6102d304 	daddi	v0,t0,-11516
81c030fc:	d304b31d 	lld	a0,-19683(t8)
81c03100:	9c60b41a 	lwu	zero,-19430(v1)                                     ; Memory Access: Memory read/write operation
81c03104:	6105732c 	daddi	a1,t0,29484
81c03108:	1a036c00 	0x1a036c00
81c0310c:	67b10c0a 	daddiu	s1,sp,3082
81c03110:	731c100d 	0x731c100d
81c03114:	6c00600b 	ldr	zero,24587(zero)
81c03118:	1a0367b1 	0x1a0367b1
81c0311c:	d20509f7 	lld	a1,2551(s0)
81c03120:	22049205 	addi	a0,s0,-28155                                     ; Math operation on registers
81c03124:	1a039404 	0x1a039404
81c03128:	67b109f7 	daddiu	s1,sp,2551
81c0312c:	a580b512 	sh	zero,-19182(t4)                                     ; Memory Access: Memory read/write operation
81c03130:	95046e00 	lhu	a0,28160(t0)                                     ; Memory Access: Memory read/write operation
81c03134:	09931a03 	j	0x864c680c                                       ; Jump or subroutine call
81c03138:	b10b67e6 	sdl	t3,26598(t0)
81c0313c:	20039960 	addi	v1,zero,-26272                                     ; Math operation on registers
81c03140:	ea6d6a01 	swc2	$13,27137(s3)                                     ; Memory Access: Memory read/write operation
81c03144:	68021003 	ldl	v0,4099(zero)
81c03148:	ea6cea0b 	swc2	$12,-5621(s3)                                     ; Memory Access: Memory read/write operation
81c0314c:	1a03b10b 	0x1a03b10b
81c03150:	e94c0976 	swc2	$12,2422(t2)                                     ; Memory Access: Memory read/write operation
81c03154:	6a01b604 	ldl	at,-18940(s0)
81c03158:	9709de20 	lhu	t1,-8672(t8)                                     ; Memory Access: Memory read/write operation
81c0315c:	90079108 	lbu	a3,-28408(zero)                                     ; Memory Access: Memory read/write operation
81c03160:	6305ef00 	daddi	a1,t8,-4352
81c03164:	a1a25014 	sb	v0,20500(t5)                                     ; Memory Access: Memory read/write operation
81c03168:	81c06f44 	lb	zero,28484(t6)                                     ; Memory Access: Memory read/write operation
81c0316c:	00400000 	0x400000
81c03170:	00800000 	0x800000
81c03174:	81c05994 	lb	zero,22932(t6)                                     ; Memory Access: Memory read/write operation
81c03178:	fffeffff 	sd	s8,-1(ra)
81c0317c:	6bff63fb 	ldl	ra,25595(ra)
81c03180:	ee6ced6c 	swc3	$12,-4756(s3)                                     ; Memory Access: Memory read/write operation
81c03184:	d007d108 	lld	a3,-12024(zero)
81c03188:	67046727 	daddiu	a0,t8,26407
81c0318c:	e96c6209 	swc2	$12,25097(t3)                                     ; Memory Access: Memory read/write operation
81c03190:	d504e86c 	ldc1	$f4,-6036(t0)                                     ; Memory Access: Memory read/write operation
81c03194:	09761a03 	j	0x85d8680c                                       ; Jump or subroutine call
81c03198:	b611d605 	sdr	s1,-10747(s0)
81c0319c:	ea2c6a2f 	swc2	$12,27183(s1)                                     ; Memory Access: Memory read/write operation
81c031a0:	09761a03 	j	0x85d8680c                                       ; Jump or subroutine call
81c031a4:	9705de40 	lhu	a1,-8640(t8)                                     ; Memory Access: Memory read/write operation
81c031a8:	36e09404 	ori	zero,s7,0x9404                                      ; Bitwise isolation/masking operation
81c031ac:	f77f3590 	sdc1	$f31,13712(k1)                                     ; Memory Access: Memory read/write operation
81c031b0:	eead6b10 	swc3	$13,27408(s5)                                     ; Memory Access: Memory read/write operation
81c031b4:	ee6cb20b 	swc3	$12,-19957(s3)                                     ; Memory Access: Memory read/write operation
81c031b8:	1a03dac0 	0x1a03dac0
81c031bc:	6c0009da 	ldr	zero,2522(zero)
81c031c0:	1a036790 	0x1a036790
81c031c4:	67b10c2a 	daddiu	s1,sp,3114
81c031c8:	09761a03 	j	0x85d8680c                                       ; Jump or subroutine call
81c031cc:	97096500 	lhu	t1,25856(t8)                                     ; Memory Access: Memory read/write operation
81c031d0:	91086a01 	lbu	t0,27137(t0)                                     ; Memory Access: Memory read/write operation
81c031d4:	ef009007 	swc3	$0,-28665(t8)                                     ; Memory Access: Memory read/write operation
81c031d8:	65006305 	daddiu	zero,t0,25349
81c031dc:	a1a2501c 	sb	v0,20508(t5)                                     ; Memory Access: Memory read/write operation
81c031e0:	a1a25014 	sb	v0,20500(t5)                                     ; Memory Access: Memory read/write operation
81c031e4:	d00463fd 	lld	a0,25597(zero)
81c031e8:	67046205 	daddiu	a0,t8,25093
81c031ec:	e8452c01 	swc2	$5,11265(v0)                                     ; Memory Access: Memory read/write operation
81c031f0:	6d09b44a 	ldr	t1,-19382(t0)
81c031f4:	6c01dca0 	ldr	at,-9056(zero)
81c031f8:	67a46f00 	daddiu	a0,sp,28416
81c031fc:	0c5f1a03 	j	0x817c680c                                       ; Jump or subroutine call
81c03200:	b4476e02 	sdr	a3,28162(v0)
81c03204:	1a0367b0 	0x1a0367b0
81c03208:	6e000280 	ldr	zero,640(s0)
81c0320c:	b446b345 	sdr	a2,-19643(v0)
81c03210:	1b03b046 	0x1b03b046
81c03214:	db40040c 	ldc2	$0,1036(k0)                                     ; Memory Access: Memory read/write operation
81c03218:	040c1b03 	teqi	zero,6915
81c0321c:	1b039880 	0x1b039880
81c03220:	9881040c 	lwr	at,1036(a0)                                     ; Memory Access: Memory read/write operation
81c03224:	040c1b03 	teqi	zero,6915
81c03228:	98409882 	lwr	zero,-26494(v0)                                     ; Memory Access: Memory read/write operation
81c0322c:	6111721c 	daddi	s1,t0,29212
81c03230:	1b03b43f 	0x1b03b43f
81c03234:	6500040c 	daddiu	zero,t0,1036
81c03238:	763898c1 	j	0x88e26305                                       ; Jump or subroutine call
81c0323c:	6c016104 	ldr	at,24836(zero)
81c03240:	6e0267a4 	ldr	v0,26532(s0)
81c03244:	6d021003 	ldr	v0,4099(t0)
81c03248:	67c56c01 	daddiu	a1,s8,27649
81c0324c:	0c5f1a03 	j	0x817c680c                                       ; Jump or subroutine call
81c03250:	b3366f00 	sdl	s6,28416(t9)
81c03254:	72c29b40 	0x72c29b40
81c03258:	728c6005 	0x728c6005
81c0325c:	9be16112 	lwr	at,24850(ra)                                     ; Memory Access: Memory read/write operation
81c03260:	61347725 	daddi	s4,t1,30501
81c03264:	b0336a80 	sdl	s3,27264(at)
81c03268:	d8406d50 	ldc2	$0,27984(v0)                                     ; Memory Access: Memory read/write operation
81c0326c:	6f00ebab 	ldr	zero,-5205(t8)
81c03270:	b432b631 	sdr	s2,-18895(at)
81c03274:	b0326a30 	sdl	s2,27184(at)
81c03278:	c6e0c460 	lwc1	$f0,-15264(s7)                                     ; Memory Access: Memory read/write operation
81c0327c:	6b35c040 	ldl	s5,-16320(t9)
81c03280:	727f1011 	0x727f1011
81c03284:	6bff6113 	ldl	ra,24851(ra)
81c03288:	b42a4b01 	sdr	t2,19201(at)
81c0328c:	dc606a5d 	ld	zero,27229(v1)
81c03290:	6b7ae84b 	ldl	k0,-6069(k1)
81c03294:	6e75b728 	ldr	s5,-18648(s3)
81c03298:	b429b528 	sdr	t1,-19160(at)
81c0329c:	c700c460 	lwc1	$f0,-15264(t8)                                     ; Memory Access: Memory read/write operation
81c032a0:	6b38c5c0 	ldl	t8,-14912(t9)
81c032a4:	c560b527 	lwc1	$f0,-19161(t3)                                     ; Memory Access: Memory read/write operation
81c032a8:	10226b0b 	b	at,v0,0x81c1ded8                                       ; Branch: evaluate condition and jump (error state fallback/looping)
81c032ac:	610e721c 	daddi	t6,t0,29212
81c032b0:	4e016eff 	c3	0x16eff
81c032b4:	b51f6b5d 	sdr	ra,27485(t0)
81c032b8:	ec6b6850 	swc3	$11,26704(v1)                                     ; Memory Access: Memory read/write operation
81c032bc:	b21eddc0 	sdl	s8,-8768(s0)
81c032c0:	b61eef0b 	sdr	s8,-4341(s0)
81c032c4:	c6e0c280 	lwc1	$f0,-15744(s7)                                     ; Memory Access: Memory read/write operation
81c032c8:	100c6b30 	b	zero,t4,0x81c1df8c                                       ; Branch: evaluate condition and jump (error state fallback/looping)
81c032cc:	6eff6b5d 	ldr	ra,27485(s7)
81c032d0:	4e01ec6b 	c3	0x1ec6b
81c032d4:	b218b517 	sdl	t8,-19177(s0)
81c032d8:	b7186875 	sdr	t8,26741(t8)
81c032dc:	c280ddc0 	ll	zero,-8768(s4)
81c032e0:	6b7ac700 	ldl	k0,-14592(k1)
81c032e4:	6838b216 	ldl	t8,-19946(at)
81c032e8:	c260b716 	ll	zero,-18666(s3)
81c032ec:	6b01c700 	ldl	at,-14592(t8)
81c032f0:	eb6bb215 	swc2	$11,-19947(k1)                                     ; Memory Access: Memory read/write operation
81c032f4:	c2606e67 	ll	zero,28263(s3)
81c032f8:	b414edcb 	sdr	s4,-4661(zero)
81c032fc:	b714b30d 	sdr	s4,-19699(t8)
81c03300:	c4a06866 	lwc1	$f0,26726(a1)                                     ; Memory Access: Memory read/write operation
81c03304:	1b039b80 	0x1b039b80
81c03308:	c700040c 	lwc1	$f0,1036(t8)                                     ; Memory Access: Memory read/write operation
81c0330c:	b2119705 	sdl	s1,-26875(s0)
81c03310:	ef009004 	swc3	$0,-28668(t8)                                     ; Memory Access: Memory read/write operation
81c03314:	65006303 	daddiu	zero,t0,25347
81c03318:	a1a000ac 	sb	zero,172(t5)                                     ; Memory Access: Memory read/write operation
81c0331c:	025317c0 	0x25317c0
81c03320:	81c05c48 	lb	zero,23624(t6)                                     ; Memory Access: Memory read/write operation
81c03324:	55555666 	b	t2,s5,0x81c18cc0                                       ; Branch: evaluate condition and jump (error state fallback/looping)
81c03328:	81c06f44 	lb	zero,28484(t6)                                     ; Memory Access: Memory read/write operation
81c0332c:	aaaabbbb 	swl	t2,-17477(s5)                                     ; Memory Access: Memory read/write operation
81c03330:	81c05990 	lb	zero,22928(t6)                                     ; Memory Access: Memory read/write operation
81c03334:	81c05994 	lb	zero,22932(t6)                                     ; Memory Access: Memory read/write operation
81c03338:	81c05995 	lb	zero,22933(t6)                                     ; Memory Access: Memory read/write operation
81c0333c:	81c05996 	lb	zero,22934(t6)                                     ; Memory Access: Memory read/write operation
81c03340:	81c05997 	lb	zero,22935(t6)                                     ; Memory Access: Memory read/write operation
81c03344:	81c05998 	lb	zero,22936(t6)                                     ; Memory Access: Memory read/write operation
81c03348:	81c0599a 	lb	zero,22938(t6)                                     ; Memory Access: Memory read/write operation
81c0334c:	81c05999 	lb	zero,22937(t6)                                     ; Memory Access: Memory read/write operation
81c03350:	81c058d8 	lb	zero,22744(t6)                                     ; Memory Access: Memory read/write operation
81c03354:	6affb312 	ldl	ra,-19694(s7)
81c03358:	9ba0eaac 	lwr	zero,-5460(sp)                                     ; Memory Access: Memory read/write operation
81c0335c:	b3119dc0 	sdl	s1,-25152(t8)
81c03360:	c440e391 	lwc1	$f0,-7279(v0)                                     ; Memory Access: Memory read/write operation
81c03364:	67432a08 	daddiu	v1,k0,10760
81c03368:	a2e0b30f 	sb	zero,-19697(s7)                                     ; Memory Access: Memory read/write operation
81c0336c:	4a012f04 	c2	0x12f04
81c03370:	61fbea6a 	daddi	k1,t7,-5526
81c03374:	b30d1009 	sdl	t5,4105(t8)
81c03378:	6a01f280 	ldl	at,-3456(s0)
81c0337c:	ea4bab80 	swc2	$11,-21632(s2)                                     ; Memory Access: Memory read/write operation
81c03380:	cb40ea8c 	lwc2	$0,-5492(k0)                                     ; Memory Access: Memory read/write operation
81c03384:	ddc0e820 	ld	zero,-6112(t6)
81c03388:	abe0b308 	swl	zero,-19704(ra)                                     ; Memory Access: Memory read/write operation
81c0338c:	f2c06cff 	scd	zero,27903(s6)
81c03390:	4c026a00 	0x4c026a00
81c03394:	ec8beaed 	swc3	$11,-5395(a0)                                     ; Memory Access: Memory read/write operation
81c03398:	650017f3 	daddiu	zero,t0,6131
81c0339c:	81c05574 	lb	zero,21876(t6)                                     ; Memory Access: Memory read/write operation
81c033a0:	81c05ce8 	lb	zero,23784(t6)                                     ; Memory Access: Memory read/write operation
81c033a4:	81c05cef 	lb	zero,23791(t6)                                     ; Memory Access: Memory read/write operation
81c033a8:	81c0557a 	lb	zero,21882(t6)                                     ; Memory Access: Memory read/write operation
81c033ac:	a340b308 	sb	zero,-19704(k0)                                     ; Memory Access: Memory read/write operation
81c033b0:	f0022203 	scd	v0,8707(zero)
81c033b4:	10026b00 	b	zero,v0,0x81c1dfb8                                       ; Branch: evaluate condition and jump (error state fallback/looping)
81c033b8:	6b00f102 	ldl	zero,-3838(t8)
81c033bc:	6a00f200 	ldl	zero,-3584(s0)
81c033c0:	f004ea6d 	scd	a0,-5523(zero)
81c033c4:	e8206c00 	swc2	$0,27648(at)                                     ; Memory Access: Memory read/write operation
81c033c8:	6500ea8d 	daddiu	zero,t0,-5491
81c033cc:	81c05c5e 	lb	zero,23646(t6)                                     ; Memory Access: Memory read/write operation
81c033d0:	620b63fa 	daddi	t3,s0,25594
81c033d4:	b215d00a 	sdl	s5,-12278(s0)
81c033d8:	22029a40 	addi	v0,s0,-26048                                     ; Math operation on registers
81c033dc:	6c02ea40 	ldr	v0,-5568(zero)
81c033e0:	6d006e01 	ldr	zero,28161(t0)
81c033e4:	b012679d 	sdl	s2,26525(zero)
81c033e8:	c4df67fd 	lwc1	$f31,26621(a2)                                     ; Memory Access: Memory read/write operation
81c033ec:	c4a0f020 	lwc1	$f0,-4064(a1)                                     ; Memory Access: Memory read/write operation
81c033f0:	c7bd9880 	lwc1	$f29,-26496(sp)                                     ; Memory Access: Memory read/write operation
81c033f4:	f000c7be 	scd	zero,-14402(zero)
81c033f8:	1a03051d 	0x1a03051d
81c033fc:	65000691 	daddiu	zero,t0,1681
81c03400:	06901a03 	b	s4,0x81c09c10                                       ; Branch: evaluate condition and jump (error state fallback/looping)
81c03404:	b40b9880 	sdr	t3,-26496(zero)
81c03408:	066f1a03 	0x66f1a03
81c0340c:	6b006d00 	ldl	zero,27904(t8)
81c03410:	f00867e3 	scd	t0,26595(zero)
81c03414:	b5076c00 	sdr	a3,27648(t0)
81c03418:	1a0367c3 	0x1a0367c3
81c0341c:	d304066e 	lld	a0,1646(t8)
81c03420:	900a970b 	lbu	t2,-26869(zero)                                     ; Memory Access: Memory read/write operation
81c03424:	6306ef00 	daddi	a2,t8,-4352
81c03428:	81c05c58 	lb	zero,23640(t6)                                     ; Memory Access: Memory read/write operation
81c0342c:	81c0599c 	lb	zero,22940(t6)                                     ; Memory Access: Memory read/write operation
81c03430:	81c04039 	lb	zero,16441(t6)                                     ; Memory Access: Memory read/write operation
81c03434:	63fc6bff 	daddi	gp,ra,27647
81c03438:	6207ec6c 	daddi	a3,s0,-5012
81c0343c:	d005d106 	lld	a1,-12026(zero)
81c03440:	2c1f6a01 	sltiu	ra,zero,27137
81c03444:	9d80b512 	lwu	zero,-19182(t4)                                     ; Memory Access: Memory read/write operation
81c03448:	b0129c20 	sdl	s2,-25568(zero)
81c0344c:	ea6ca040 	swc2	$12,-24512(s3)                                     ; Memory Access: Memory read/write operation
81c03450:	600a7201 	daddi	t2,zero,29185
81c03454:	a7c0b710 	sh	zero,-18672(s8)                                     ; Memory Access: Memory read/write operation
81c03458:	7601ee6c 	j	0x8807b9b1                                       ; Jump or subroutine call
81c0345c:	b40f6005 	sdr	t7,24581(zero)
81c03460:	eb4ca440 	swc2	$12,-23488(k0)                                     ; Memory Access: Memory read/write operation
81c03464:	61047301 	daddi	a0,t0,29441
81c03468:	a340b30a 	sb	zero,-19702(k0)                                     ; Memory Access: Memory read/write operation
81c0346c:	10066a00 	b	zero,a2,0x81c1dc70                                       ; Branch: evaluate condition and jump (error state fallback/looping)
81c03470:	149d1a03 	b	a0,sp,0x81c09c80                                       ; Branch: evaluate condition and jump (error state fallback/looping)
81c03474:	22026c00 	addi	v0,s0,27648                                     ; Math operation on registers
81c03478:	c0a06d01 	ll	zero,27905(a1)
81c0347c:	9e00b604 	lwu	zero,-18940(s0)                                     ; Memory Access: Memory read/write operation
81c03480:	9707d820 	lhu	a3,-10208(t8)                                     ; Memory Access: Memory read/write operation
81c03484:	90059106 	lbu	a1,-28410(zero)                                     ; Memory Access: Memory read/write operation
81c03488:	6304ef00 	daddi	a0,t8,-4352
81c0348c:	81c05574 	lb	zero,21876(t6)                                     ; Memory Access: Memory read/write operation
81c03490:	81c05c5f 	lb	zero,23647(t6)                                     ; Memory Access: Memory read/write operation
81c03494:	81c05c60 	lb	zero,23648(t6)                                     ; Memory Access: Memory read/write operation
81c03498:	81c05c61 	lb	zero,23649(t6)                                     ; Memory Access: Memory read/write operation
81c0349c:	6aff63fc 	ldl	ra,25596(s7)
81c034a0:	d1066207 	lld	a2,25095(t0)
81c034a4:	ea8cd005 	swc2	$12,-12283(s4)                                     ; Memory Access: Memory read/write operation
81c034a8:	9c60b424 	lwu	zero,-19420(v1)                                     ; Memory Access: Memory read/write operation
81c034ac:	9b206d00 	lwr	zero,27904(t9)                                     ; Memory Access: Memory read/write operation
81c034b0:	ac60b423 	sw	zero,-19421(v1)                                     ; Memory Access: Memory read/write operation
81c034b4:	6e1ff7e7 	ldr	ra,-2073(s0)
81c034b8:	cc60ebcc 	lwc3	$0,-5172(v1)                                     ; Memory Access: Memory read/write operation
81c034bc:	f0102a04 	scd	s0,10756(zero)
81c034c0:	edab6d00 	swc3	$11,27904(t5)                                     ; Memory Access: Memory read/write operation
81c034c4:	7201101a 	0x7201101a
81c034c8:	f0086105 	scd	t0,24837(zero)
81c034cc:	ebad6d00 	swc2	$13,27904(sp)                                     ; Memory Access: Memory read/write operation
81c034d0:	1013cc60 	b	zero,s3,0x81bf6654                                       ; Branch: evaluate condition and jump (error state fallback/looping)
81c034d4:	61087202 	daddi	t0,t0,29186
81c034d8:	6f00f010 	ldr	zero,-4080(t8)
81c034dc:	ea6deaeb 	swc2	$13,-5397(s3)                                     ; Memory Access: Memory read/write operation
81c034e0:	f004cc40 	scd	a0,-13248(zero)
81c034e4:	10096d00 	b	zero,t1,0x81c1e8e8                                       ; Branch: evaluate condition and jump (error state fallback/looping)
81c034e8:	61077203 	daddi	a3,t0,29187
81c034ec:	6e00f008 	ldr	zero,-4088(s0)
81c034f0:	e86de8cb 	swc2	$13,-5941(v1)                                     ; Memory Access: Memory read/write operation
81c034f4:	f002cc00 	scd	v0,-13312(zero)
81c034f8:	b4126d00 	sdr	s2,27904(zero)
81c034fc:	681ff7ff 	ldl	ra,-2049(zero)
81c03500:	e8acac60 	swc2	$12,-21408(a1)                                     ; Memory Access: Memory read/write operation
81c03504:	2b03eb0c 	slti	v1,t8,-5364
81c03508:	06891a03 	tgeiu	s4,6659
81c0350c:	b70c6500 	sdr	t4,25856(t8)
81c03510:	1a03afa0 	0x1a03afa0
81c03514:	6c011543 	ldr	at,5443(zero)
81c03518:	aaa0b20a 	swl	zero,-19958(s5)                                     ; Memory Access: Memory read/write operation
81c0351c:	2503ed0c 	addiu	v1,t0,-4852                                     ; Math operation on registers
81c03520:	06881a03 	tgei	s4,6659
81c03524:	b6056500 	sdr	a1,25856(s0)
81c03528:	6a019e00 	ldl	at,-25088(s0)
81c0352c:	9707d820 	lhu	a3,-10208(t8)                                     ; Memory Access: Memory read/write operation
81c03530:	90059106 	lbu	a1,-28410(zero)                                     ; Memory Access: Memory read/write operation
81c03534:	6304ef00 	daddi	a0,t8,-4352
81c03538:	81c05574 	lb	zero,21876(t6)                                     ; Memory Access: Memory read/write operation
81c0353c:	81c059b8 	lb	zero,22968(t6)                                     ; Memory Access: Memory read/write operation
81c03540:	81c059a0 	lb	zero,22944(t6)                                     ; Memory Access: Memory read/write operation
81c03544:	6a1ff7ff 	ldl	ra,-2049(s0)
81c03548:	620563fd 	daddi	a1,s0,25597
81c0354c:	03cd1a03 	0x3cd1a03
81c03550:	9705ed4c 	lhu	a1,-4788(t8)                                     ; Memory Access: Memory read/write operation
81c03554:	ef006a01 	swc3	$0,27137(t8)                                     ; Memory Access: Memory read/write operation
81c03558:	65006303 	daddiu	zero,t0,25347
81c0355c:	d10863fb 	lld	t0,25595(t0)
81c03560:	d0076209 	lld	a3,25097(zero)
81c03564:	9960b111 	lwr	zero,-20207(t3)                                     ; Memory Access: Memory read/write operation
81c03568:	9bc06dff 	lwr	zero,28159(s8)                                     ; Memory Access: Memory read/write operation
81c0356c:	b010ed8c 	sdl	s0,-4724(zero)
81c03570:	6f07a840 	ldr	a3,-22464(t8)
81c03574:	4fc0edec 	c3	0x1c0edec
81c03578:	35acef4c 	ori	t4,t5,0xef4c                                      ; Bitwise isolation/masking operation
81c0357c:	f7ffeded 	sdc1	$f31,-4627(ra)                                     ; Memory Access: Memory read/write operation
81c03580:	ed8c6c1f 	swc3	$12,27679(t4)                                     ; Memory Access: Memory read/write operation
81c03584:	c8a06c05 	lwc2	$0,27653(a1)                                     ; Memory Access: Memory read/write operation
81c03588:	0d511a03 	j	0x8544680c                                       ; Jump or subroutine call
81c0358c:	a8a0d604 	swl	zero,-10748(a1)                                     ; Memory Access: Memory read/write operation
81c03590:	0d511a03 	j	0x8544680c                                       ; Jump or subroutine call
81c03594:	99406c0a 	lwr	zero,27658(t2)                                     ; Memory Access: Memory read/write operation
81c03598:	da609304 	ldc2	$0,-27900(s3)                                     ; Memory Access: Memory read/write operation
81c0359c:	91089709 	lbu	t0,-26871(t0)                                     ; Memory Access: Memory read/write operation
81c035a0:	ef009007 	swc3	$0,-28665(t8)                                     ; Memory Access: Memory read/write operation
81c035a4:	65006305 	daddiu	zero,t0,25349
81c035a8:	81c05574 	lb	zero,21876(t6)                                     ; Memory Access: Memory read/write operation
81c035ac:	81c059aa 	lb	zero,22954(t6)                                     ; Memory Access: Memory read/write operation
81c035b0:	d10863fb 	lld	t0,25595(t0)
81c035b4:	d0076209 	lld	a3,25097(zero)
81c035b8:	9960b111 	lwr	zero,-20207(t3)                                     ; Memory Access: Memory read/write operation
81c035bc:	9bc06dff 	lwr	zero,28159(s8)                                     ; Memory Access: Memory read/write operation
81c035c0:	b010ed8c 	sdl	s0,-4724(zero)
81c035c4:	6f07a840 	ldr	a3,-22464(t8)
81c035c8:	f63fedec 	sdc1	$f31,-4628(s1)                                     ; Memory Access: Memory read/write operation
81c035cc:	ef4c4f18 	swc3	$12,20248(k0)                                     ; Memory Access: Memory read/write operation
81c035d0:	eded35b8 	swc3	$13,13752(t7)                                     ; Memory Access: Memory read/write operation
81c035d4:	6c1ff7ff 	ldr	ra,-2049(zero)
81c035d8:	6c05ed8c 	ldr	a1,-4724(zero)
81c035dc:	1a03c8a0 	0x1a03c8a0
81c035e0:	d6040d51 	ldc1	$f4,3409(s0)                                     ; Memory Access: Memory read/write operation
81c035e4:	1a03a8a0 	0x1a03a8a0
81c035e8:	6c0a0d51 	ldr	t2,3409(zero)
81c035ec:	93049940 	lbu	a0,-26304(t8)                                     ; Memory Access: Memory read/write operation
81c035f0:	9709da60 	lhu	t1,-9632(t8)                                     ; Memory Access: Memory read/write operation
81c035f4:	90079108 	lbu	a3,-28408(zero)                                     ; Memory Access: Memory read/write operation
81c035f8:	6305ef00 	daddi	a1,t8,-4352
81c035fc:	81c05574 	lb	zero,21876(t6)                                     ; Memory Access: Memory read/write operation
81c03600:	81c059aa 	lb	zero,22954(t6)                                     ; Memory Access: Memory read/write operation
81c03604:	f09263fd 	scd	s2,25597(a0)
81c03608:	62056d0c 	daddi	a1,s0,27916
81c0360c:	03cd1a03 	0x3cd1a03
81c03610:	f0826c2d 	scd	v0,27693(a0)
81c03614:	1a036d0e 	0x1a036d0e
81c03618:	6c2e03cd 	ldr	t6,973(at)
81c0361c:	a3a0b310 	sb	zero,-19696(sp)                                     ; Memory Access: Memory read/write operation
81c03620:	ab80b310 	swl	zero,-19696(gp)                                     ; Memory Access: Memory read/write operation
81c03624:	ed4c6a0f 	swc3	$12,27151(t2)                                     ; Memory Access: Memory read/write operation
81c03628:	4a10f0fe 	c2	0x10f0fe
81c0362c:	35a0ea8c 	ori	zero,t5,0xea8c                                      ; Bitwise isolation/masking operation
81c03630:	6f00ed4d 	ldr	zero,-4787(t8)
81c03634:	b20db60c 	sdl	t5,-18932(s0)
81c03638:	a2e0c6e0 	sb	zero,-14624(s7)                                     ; Memory Access: Memory read/write operation
81c0363c:	6c1ff7e1 	ldr	ra,-2079(zero)
81c03640:	ed8c36e0 	swc3	$12,14048(t4)                                     ; Memory Access: Memory read/write operation
81c03644:	ed8d34d0 	swc3	$13,13520(t4)                                     ; Memory Access: Memory read/write operation
81c03648:	6a1ff7ff 	ldl	ra,-2049(s0)
81c0364c:	cba0ed4c 	lwc2	$0,-4788(sp)                                     ; Memory Access: Memory read/write operation
81c03650:	03cd1a03 	0x3cd1a03
81c03654:	97056c2f 	lhu	a1,27695(t8)                                     ; Memory Access: Memory read/write operation
81c03658:	6303ef00 	daddi	v1,t8,-4352
81c0365c:	81c05c74 	lb	zero,23668(t6)                                     ; Memory Access: Memory read/write operation
81c03660:	81c05578 	lb	zero,21880(t6)                                     ; Memory Access: Memory read/write operation
81c03664:	81c05c7c 	lb	zero,23676(t6)                                     ; Memory Access: Memory read/write operation
81c03668:	81c05c70 	lb	zero,23664(t6)                                     ; Memory Access: Memory read/write operation
81c0366c:	6a1ff7ff 	ldl	ra,-2049(s0)
81c03670:	620563fd 	daddi	a1,s0,25597
81c03674:	03cd1a03 	0x3cd1a03
81c03678:	9705ed4c 	lhu	a1,-4788(t8)                                     ; Memory Access: Memory read/write operation
81c0367c:	ef006a01 	swc3	$0,27137(t8)                                     ; Memory Access: Memory read/write operation
81c03680:	65006303 	daddiu	zero,t0,25347
81c03684:	6a1ff7ff 	ldl	ra,-2049(s0)
81c03688:	620563fd 	daddi	a1,s0,25597
81c0368c:	03cd1a03 	0x3cd1a03
81c03690:	9705ed4c 	lhu	a1,-4788(t8)                                     ; Memory Access: Memory read/write operation
81c03694:	6303ef00 	daddi	v1,t8,-4352
81c03698:	d00563fc 	lld	a1,25596(zero)
81c0369c:	9860b015 	lwr	zero,-20459(v1)                                     ; Memory Access: Memory read/write operation
81c036a0:	d1066207 	lld	a2,25095(t0)
81c036a4:	b2149b20 	sdl	s4,-25824(s0)
81c036a8:	f7ffaaa0 	sdc1	$f31,-21856(ra)                                     ; Memory Access: Memory read/write operation
81c036ac:	ed8c6c1c 	swc3	$12,27676(t4)                                     ; Memory Access: Memory read/write operation
81c036b0:	1a03caa0 	0x1a03caa0
81c036b4:	6c270da1 	ldr	a3,3489(at)
81c036b8:	ace0b410 	sw	zero,-19440(a3)                                     ; Memory Access: Memory read/write operation
81c036bc:	edab6d1d 	swc3	$11,27933(t5)                                     ; Memory Access: Memory read/write operation
81c036c0:	6e1cedec 	ldr	gp,-4628(s0)
81c036c4:	f4ffedcd 	sdc1	$f31,-4659(a3)                                     ; Memory Access: Memory read/write operation
81c036c8:	edcc4e03 	swc3	$12,19971(t6)                                     ; Memory Access: Memory read/write operation
81c036cc:	4e01f600 	c3	0x1f600
81c036d0:	f7ffedcd 	sdc1	$f31,-4659(ra)                                     ; Memory Access: Memory read/write operation
81c036d4:	ed6c6b1f 	swc3	$12,27423(t3)                                     ; Memory Access: Memory read/write operation
81c036d8:	1a03cca0 	0x1a03cca0
81c036dc:	6c410da1 	ldr	at,3489(v0)
81c036e0:	da209840 	ldc2	$0,-26560(s1)                                     ; Memory Access: Memory read/write operation
81c036e4:	91069707 	lbu	a2,-26873(t0)                                     ; Memory Access: Memory read/write operation
81c036e8:	ef009005 	swc3	$0,-28667(t8)                                     ; Memory Access: Memory read/write operation
81c036ec:	65006304 	daddiu	zero,t0,25348
81c036f0:	81c05574 	lb	zero,21876(t6)                                     ; Memory Access: Memory read/write operation
81c036f4:	81c059a4 	lb	zero,22948(t6)                                     ; Memory Access: Memory read/write operation
81c036f8:	81c059a6 	lb	zero,22950(t6)                                     ; Memory Access: Memory read/write operation
81c036fc:	b21a63fb 	sdl	k0,25595(s0)
81c03700:	d1086209 	lld	t0,25097(t0)
81c03704:	e299d007 	sc	t9,-12281(s4)
81c03708:	9c60b418 	lwu	zero,-19432(v1)                                     ; Memory Access: Memory read/write operation
81c0370c:	9b20c6a0 	lwr	zero,-14688(t9)                                     ; Memory Access: Memory read/write operation
81c03710:	a260a202 	sb	zero,-24062(s3)                                     ; Memory Access: Memory read/write operation
81c03714:	e843a241 	swc2	$3,-23999(v0)                                     ; Memory Access: Memory read/write operation
81c03718:	67026001 	daddiu	v0,t8,24577
81c0371c:	6001e863 	daddi	at,zero,-6045
81c03720:	b2136703 	sdl	s3,26371(s0)
81c03724:	ed0ea2a0 	swc3	$14,-23904(t0)                                     ; Memory Access: Memory read/write operation
81c03728:	b7122515 	sdr	s2,9493(t8)
81c0372c:	a380e70d 	sb	zero,-6387(gp)                                     ; Memory Access: Memory read/write operation
81c03730:	6f1ff7e1 	ldr	ra,-2079(t8)
81c03734:	b4103580 	sdr	s0,13696(zero)
81c03738:	35b0acc0 	ori	s0,t5,0xacc0                                      ; Bitwise isolation/masking operation
81c0373c:	ededefcc 	swc3	$13,-4148(t7)                                     ; Memory Access: Memory read/write operation
81c03740:	6b1ff7ff 	ldl	ra,-2049(t8)
81c03744:	cca0ed6c 	lwc3	$0,-4756(a1)                                     ; Memory Access: Memory read/write operation
81c03748:	1a036c2f 	0x1a036c2f
81c0374c:	d2040da1 	lld	a0,3489(s0)
81c03750:	c7009704 	lwc1	$f0,-26876(t8)                                     ; Memory Access: Memory read/write operation
81c03754:	9a00b205 	lwr	zero,-19963(s0)                                     ; Memory Access: Memory read/write operation
81c03758:	9709d820 	lhu	t1,-10208(t8)                                     ; Memory Access: Memory read/write operation
81c0375c:	90079108 	lbu	a3,-28408(zero)                                     ; Memory Access: Memory read/write operation
81c03760:	6305ef00 	daddi	a1,t8,-4352
81c03764:	81c05c78 	lb	zero,23672(t6)                                     ; Memory Access: Memory read/write operation
81c03768:	81c05574 	lb	zero,21876(t6)                                     ; Memory Access: Memory read/write operation
81c0376c:	81c05c7c 	lb	zero,23676(t6)                                     ; Memory Access: Memory read/write operation
81c03770:	81c05c70 	lb	zero,23664(t6)                                     ; Memory Access: Memory read/write operation
81c03774:	81c05578 	lb	zero,21880(t6)                                     ; Memory Access: Memory read/write operation
81c03778:	d00563fc 	lld	a1,25596(zero)
81c0377c:	9840b00f 	lwr	zero,-20465(v0)                                     ; Memory Access: Memory read/write operation
81c03780:	d1066207 	lld	a2,25095(t0)
81c03784:	9a206dff 	lwr	zero,28159(s1)                                     ; Memory Access: Memory read/write operation
81c03788:	b30ded8c 	sdl	t5,-4724(t8)
81c0378c:	6e07abe0 	ldr	a3,-21536(s0)
81c03790:	4ec0edcc 	c3	0xc0edcc
81c03794:	35aceeec 	ori	t4,t5,0xeeec                                      ; Bitwise isolation/masking operation
81c03798:	f7ffedcd 	sdc1	$f31,-4659(ra)                                     ; Memory Access: Memory read/write operation
81c0379c:	ed8c6c1f 	swc3	$12,27679(t4)                                     ; Memory Access: Memory read/write operation
81c037a0:	1a036c06 	0x1a036c06
81c037a4:	cba00da1 	lwc2	$0,3489(sp)                                     ; Memory Access: Memory read/write operation
81c037a8:	da209840 	ldc2	$0,-26560(s1)                                     ; Memory Access: Memory read/write operation
81c037ac:	91069707 	lbu	a2,-26873(t0)                                     ; Memory Access: Memory read/write operation
81c037b0:	ef009005 	swc3	$0,-28667(t8)                                     ; Memory Access: Memory read/write operation
81c037b4:	65006304 	daddiu	zero,t0,25348
81c037b8:	81c05574 	lb	zero,21876(t6)                                     ; Memory Access: Memory read/write operation
81c037bc:	81c059c4 	lb	zero,22980(t6)                                     ; Memory Access: Memory read/write operation
81c037c0:	63fa6aff 	daddi	k0,ra,27391
81c037c4:	5e02eaac 	0x5e02eaac
81c037c8:	d009d10a 	lld	t1,-12022(zero)
81c037cc:	6704620b 	daddiu	a0,t8,25099
81c037d0:	d70f6726 	ldc1	$f15,26406(t8)                                     ; Memory Access: Memory read/write operation
81c037d4:	6104d204 	daddi	a0,t0,-11772
81c037d8:	1a03b453 	0x1a03b453
81c037dc:	65000683 	daddiu	zero,t0,1667
81c037e0:	33823402 	andi	v0,gp,0x3402                                     ; Bitwise isolation/masking operation
81c037e4:	60047305 	daddi	a0,zero,29445
81c037e8:	1a03b44f 	0x1a03b44f
81c037ec:	65000683 	daddiu	zero,t0,1667
81c037f0:	6a1ff7ff 	ldl	ra,-2049(s0)
81c037f4:	f004ea0c 	scd	a0,-5620(zero)
81c037f8:	61055a00 	daddi	a1,t0,23040
81c037fc:	1a03b44a 	0x1a03b44a
81c03800:	d2060683 	lld	a2,1667(s0)
81c03804:	b5499206 	sdr	t1,-28154(t2)
81c03808:	2506ed4c 	addiu	a2,t0,-4788                                     ; Math operation on registers
81c0380c:	b7486b11 	sdr	t0,27409(k0)
81c03810:	ee4cee6b 	swc3	$12,-4501(s2)                                     ; Memory Access: Memory read/write operation
81c03814:	e8cde8ec 	swc2	$13,-5908(a2)                                     ; Memory Access: Memory read/write operation
81c03818:	6a1ff7ff 	ldl	ra,-2049(s0)
81c0381c:	ea0cb445 	swc2	$12,-19387(s0)                                     ; Memory Access: Memory read/write operation
81c03820:	2202ea8c 	addi	v0,s0,-5492                                     ; Math operation on registers
81c03824:	e8adb544 	swc2	$13,-19132(a1)                                     ; Memory Access: Memory read/write operation
81c03828:	6a1ff7ff 	ldl	ra,-2049(s0)
81c0382c:	2274ea0c 	addi	s4,s3,-5620                                     ; Math operation on registers
81c03830:	9880b042 	lwr	zero,-20414(a0)                                     ; Memory Access: Memory read/write operation
81c03834:	9c6067a2 	lwu	zero,26530(v1)                                     ; Memory Access: Memory read/write operation
81c03838:	d305652c 	lld	a1,25900(t8)
81c0383c:	e9f86f34 	swc2	$24,28468(t7)                                     ; Memory Access: Memory read/write operation
81c03840:	6c00b63f 	ldr	zero,-18881(zero)
81c03844:	e0cde812 	sc	t5,-6126(a2)
81c03848:	67c56f01 	daddiu	a1,s8,28417
81c0384c:	261eeeec 	addiu	s8,s0,-4372                                     ; Math operation on registers
81c03850:	90049bc0 	lbu	a0,-25664(zero)                                     ; Memory Access: Memory read/write operation
81c03854:	2009650e 	addi	t1,zero,25870                                     ; Math operation on registers
81c03858:	ece42603 	swc3	$4,9731(a3)                                     ; Memory Access: Memory read/write operation
81c0385c:	eaecefef 	swc2	$12,-4113(s7)                                     ; Memory Access: Memory read/write operation
81c03860:	6708960f 	daddiu	t0,t8,-27121
81c03864:	dbc0ee0d 	ldc2	$0,-4595(s8)                                     ; Memory Access: Memory read/write operation
81c03868:	900f1011 	lbu	t7,4113(zero)                                     ; Memory Access: Memory read/write operation
81c0386c:	6708ee0f 	daddiu	t0,t8,-4593
81c03870:	dbc0ee0c 	ldc2	$0,-4596(s8)                                     ; Memory Access: Memory read/write operation
81c03874:	67c7260b 	daddiu	a3,s8,9739
81c03878:	efcfecc4 	swc3	$15,-4924(s8)                                     ; Memory Access: Memory read/write operation
81c0387c:	30e0ef4c 	andi	zero,a3,0xef4c                                     ; Bitwise isolation/masking operation
81c03880:	32c33600 	andi	v1,s6,0x3600                                     ; Bitwise isolation/masking operation
81c03884:	f7ff3243 	sdc1	$f31,12867(ra)                                     ; Memory Access: Memory read/write operation
81c03888:	eaec6f1f 	swc2	$12,28447(s7)                                     ; Memory Access: Memory read/write operation
81c0388c:	4b0435a6 	c2	0x10435a6
81c03890:	4c012502 	0x4c012502
81c03894:	2a0417d9 	slti	a0,s0,6105
81c03898:	67299505 	daddiu	t1,t9,-27387
81c0389c:	103cd9a0 	b	at,gp,0x81bf9f20                                       ; Branch: evaluate condition and jump (error state fallback/looping)
81c038a0:	b6289004 	sdr	t0,-28668(s1)
81c038a4:	b4283324 	sdr	t0,13092(at)
81c038a8:	e679200e 	swc1	$f25,8206(s3)                                     ; Memory Access: Memory read/write operation
81c038ac:	ed4faee0 	swc3	$15,-20768(t2)                                     ; Memory Access: Memory read/write operation
81c038b0:	ec4cedec 	swc3	$12,-4628(v0)                                     ; Memory Access: Memory read/write operation
81c038b4:	2413cea0 	li	s3,-12640                                      ; Load Immediate pseudo-instruction
81c038b8:	e56db524 	swc1	$f13,-19164(t3)                                     ; Memory Access: Memory read/write operation
81c038bc:	6c03a300 	ldr	v1,-23808(zero)
81c038c0:	ec0cec8b 	swc3	$12,-4981(zero)                                     ; Memory Access: Memory read/write operation
81c038c4:	e679100b 	swc1	$f25,4107(s3)                                     ; Memory Access: Memory read/write operation
81c038c8:	ec4caee0 	swc3	$12,-20768(v0)                                     ; Memory Access: Memory read/write operation
81c038cc:	cee0ef4d 	lwc3	$0,-4275(s7)                                     ; Memory Access: Memory read/write operation
81c038d0:	b41e2406 	sdr	s8,9222(zero)
81c038d4:	a300e46d 	sb	zero,-7059(t8)                                     ; Memory Access: Memory read/write operation
81c038d8:	ec0d6c02 	swc3	$13,27650(zero)                                     ; Memory Access: Memory read/write operation
81c038dc:	7101c380 	0x7101c380
81c038e0:	61016800 	daddi	at,t0,26624
81c038e4:	b51a6805 	sdr	k0,26629(t0)
81c038e8:	2312a560 	addi	s2,t8,-23200                                     ; Math operation on registers
81c038ec:	3124b415 	andi	a0,t1,0xb415                                     ; Bitwise isolation/masking operation
81c038f0:	aea0e439 	sw	zero,-7111(s5)                                     ; Memory Access: Memory read/write operation
81c038f4:	1a034083 	0x1a034083
81c038f8:	d2060da1 	lld	a2,3489(s0)
81c038fc:	9206b712 	lbu	a2,-18670(s0)                                     ; Memory Access: Memory read/write operation
81c03900:	2706ef4c 	addiu	a2,t8,-4276                                     ; Math operation on registers
81c03904:	e325b311 	sc	a1,-19695(t9)
81c03908:	1a03a9a0 	0x1a03a9a0
81c0390c:	40840da1 	0x40840da1
81c03910:	9f00b70a 	lwu	zero,-18678(t8)                                     ; Memory Access: Memory read/write operation
81c03914:	d8a09505 	ldc2	$0,-27387(a1)                                     ; Memory Access: Memory read/write operation
81c03918:	910a970b 	lbu	t2,-26869(t0)                                     ; Memory Access: Memory read/write operation
81c0391c:	ef009009 	swc3	$0,-28663(t8)                                     ; Memory Access: Memory read/write operation
81c03920:	65006306 	daddiu	zero,t0,25350
81c03924:	81c058f0 	lb	zero,22768(t6)                                     ; Memory Access: Memory read/write operation
81c03928:	00050010 	0x50010
81c0392c:	ffff0000 	sd	ra,0(ra)
81c03930:	00050008 	0x50008
81c03934:	00050400 	sll	zero,a1,0x10
81c03938:	81c05574 	lb	zero,21876(t6)                                     ; Memory Access: Memory read/write operation
81c0393c:	81c05c80 	lb	zero,23680(t6)                                     ; Memory Access: Memory read/write operation
81c03940:	81c059c0 	lb	zero,22976(t6)                                     ; Memory Access: Memory read/write operation
81c03944:	00050004 	sllv	zero,a1,zero
81c03948:	81c059bc 	lb	zero,22972(t6)                                     ; Memory Access: Memory read/write operation
81c0394c:	81c05c5e 	lb	zero,23646(t6)                                     ; Memory Access: Memory read/write operation
81c03950:	ed8c6dff 	swc3	$12,28159(t4)                                     ; Memory Access: Memory read/write operation
81c03954:	b406b705 	sdr	a2,-18683(zero)
81c03958:	620563fd 	daddi	a1,s0,25597
81c0395c:	0df01a03 	j	0x87c0680c                                       ; Jump or subroutine call
81c03960:	97056e00 	lhu	a1,28160(t8)                                     ; Memory Access: Memory read/write operation
81c03964:	6303ef00 	daddi	v1,t8,-4352
81c03968:	80000000 	lb	zero,0(zero)                                     ; Memory Access: Memory read/write operation
81c0396c:	00051000 	sll	v0,a1,0x0
81c03970:	d00b63f9 	lld	t3,25593(zero)
81c03974:	6d0c6705 	ldr	t4,26373(t0)
81c03978:	ecb8d10c 	swc3	$24,-12020(a1)                                     ; Memory Access: Memory read/write operation
81c0397c:	b2df620d 	sdl	ra,25101(s6)
81c03980:	67249a40 	daddiu	a0,t9,-26048
81c03984:	e28dec12 	sc	t5,-5102(s4)
81c03988:	5b079b7c 	0x5b079b7c
81c0398c:	6018f180 	daddi	t8,zero,-3712
81c03990:	35640f04 	ori	a0,t3,0xf04                                      ; Bitwise isolation/masking operation
81c03994:	8c60e7b1 	lw	zero,-6223(v1)                                     ; Memory Access: Memory read/write operation
81c03998:	ee00e779 	swc3	$0,-6279(s0)                                     ; Memory Access: Memory read/write operation
81c0399c:	65006500 	daddiu	zero,t0,25856
81c039a0:	000f0329 	0xf0329
81c039a4:	0321001f 	ddivu	zero,t9,at
81c039a8:	00cd0035 	0xcd0035
81c039ac:	58080299 	0x58080299
81c039b0:	68076101 	ldl	a3,24833(zero)
81c039b4:	6c02e209 	ldr	v0,-7671(zero)
81c039b8:	a2b0f0e0 	sb	s0,-3872(s5)                                     ; Memory Access: Memory read/write operation
81c039bc:	58081007 	0x58081007
81c039c0:	68076101 	ldl	a3,24833(zero)
81c039c4:	f0e0e219 	scd	zero,-7655(a3)
81c039c8:	6c03a6b8 	ldr	v1,-22856(zero)
81c039cc:	06711a03 	b	s3,0x81c0a1dc                                       ; Branch: evaluate condition and jump (error state fallback/looping)
81c039d0:	117a6500 	b	t3,k0,0x81c1cdd4                                       ; Branch: evaluate condition and jump (error state fallback/looping)
81c039d4:	e9b86d0c 	swc2	$24,27916(t5)                                     ; Memory Access: Memory read/write operation
81c039d8:	e271eb12 	sc	s1,-5358(s3)
81c039dc:	acf6f060 	sw	s6,-4000(a3)                                     ; Memory Access: Memory read/write operation
81c039e0:	b4c72f04 	sdr	a3,12036(a2)
81c039e4:	06831a03 	b	s4,0x81c0a1f4                                       ; Branch: evaluate condition and jump (error state fallback/looping)
81c039e8:	6e0c6500 	ldr	t4,25856(s0)
81c039ec:	e9d8b7c3 	swc2	$24,-18493(t6)                                     ; Memory Access: Memory read/write operation
81c039f0:	ea129f80 	swc2	$18,-24704(s0)                                     ; Memory Access: Memory read/write operation
81c039f4:	f060e44d 	scd	zero,-7091(v1)
81c039f8:	7205ab56 	0x7205ab56
81c039fc:	67706122 	daddiu	s0,k1,24866
81c03a00:	6b012001 	ldl	at,8193(t8)
81c03a04:	e9d86e0c 	swc2	$24,28172(t6)                                     ; Memory Access: Memory read/write operation
81c03a08:	4f0741e7 	c3	0x10741e7
81c03a0c:	6a01ed12 	ldl	at,-4846(s0)
81c03a10:	ef44e4b1 	swc3	$4,-6991(k0)                                     ; Memory Access: Memory read/write operation
81c03a14:	67a39c9d 	daddiu	v1,sp,-25443
81c03a18:	6e0067e2 	ldr	zero,26594(s0)
81c03a1c:	1a03d209 	0x1a03d209
81c03a20:	d3050df0 	lld	a1,3568(t8)
81c03a24:	92097108 	lbu	t1,28936(s0)                                     ; Memory Access: Memory read/write operation
81c03a28:	f1409305 	scd	zero,-27899(t2)
81c03a2c:	b5b3610d 	sdr	s3,24845(t5)
81c03a30:	6e019d80 	ldr	at,-25216(s0)
81c03a34:	9c964c7c 	lwu	s6,19580(a0)                                     ; Memory Access: Memory read/write operation
81c03a38:	1a0367a3 	0x1a0367a3
81c03a3c:	67e20df0 	daddiu	v0,ra,3568
81c03a40:	59081150 	0x59081150
81c03a44:	6e01600f 	ldr	at,24591(s0)
81c03a48:	6ff6e9c4 	ldr	s6,-5692(ra)
81c03a4c:	260aeeec 	addiu	t2,s0,-4372                                     ; Math operation on registers
81c03a50:	28049b9d 	slti	a0,zero,-25699
81c03a54:	068c1a03 	teqi	s4,6659
81c03a58:	11366500 	b	t1,s6,0x81c1ce5c                                       ; Branch: evaluate condition and jump (error state fallback/looping)
81c03a5c:	068d1a03 	0x68d1a03
81c03a60:	11326500 	b	t1,s2,0x81c1ce64                                       ; Branch: evaluate condition and jump (error state fallback/looping)
81c03a64:	f1207201 	scd	zero,29185(t1)
81c03a68:	112e610b 	b	t1,t6,0x81c1be98                                       ; Branch: evaluate condition and jump (error state fallback/looping)
81c03a6c:	60637101 	daddi	v1,v1,28929
81c03a70:	416c2105 	0x416c2105
81c03a74:	f1205b04 	scd	zero,23300(t1)
81c03a78:	105d6003 	b	v0,sp,0x81c1ba88                                       ; Branch: evaluate condition and jump (error state fallback/looping)
81c03a7c:	9d80b5a1 	lwu	zero,-19039(t4)                                     ; Memory Access: Memory read/write operation
81c03a80:	d2049c40 	lld	a0,-25536(s0)
81c03a84:	280eb4a0 	slti	t6,zero,-19296
81c03a88:	6b41a441 	ldl	at,-23487(k0)
81c03a8c:	ef6b6e7f 	swc3	$11,28287(k1)                                     ; Memory Access: Memory read/write operation
81c03a90:	eeecee4c 	swc3	$12,-4532(s7)                                     ; Memory Access: Memory read/write operation
81c03a94:	eeec4f20 	swc3	$12,20256(s7)                                     ; Memory Access: Memory read/write operation
81c03a98:	eeec4f10 	swc3	$12,20240(s7)                                     ; Memory Access: Memory read/write operation
81c03a9c:	06891a03 	tgeiu	s4,6659
81c03aa0:	102ac4c1 	b	at,t2,0x81bf4da8                                       ; Branch: evaluate condition and jump (error state fallback/looping)
81c03aa4:	6d80a461 	ldr	zero,-23455(t4)
81c03aa8:	eb4deaab 	swc2	$13,-5461(k0)                                     ; Memory Access: Memory read/write operation
81c03aac:	ebed6f40 	swc2	$13,28480(ra)                                     ; Memory Access: Memory read/write operation
81c03ab0:	ebcd6e20 	swc2	$13,28192(s8)                                     ; Memory Access: Memory read/write operation
81c03ab4:	ebad6d10 	swc2	$13,27920(sp)                                     ; Memory Access: Memory read/write operation
81c03ab8:	c4617001 	lwc1	$f1,28673(v1)                                     ; Memory Access: Memory read/write operation
81c03abc:	70026005 	0x70026005
81c03ac0:	7003600a 	0x7003600a
81c03ac4:	10146008 	b	zero,s4,0x81c1bae8                                       ; Branch: evaluate condition and jump (error state fallback/looping)
81c03ac8:	a381b390 	sb	at,-19568(gp)                                     ; Memory Access: Memory read/write operation
81c03acc:	eaedea8d 	swc2	$13,-5491(s7)                                     ; Memory Access: Memory read/write operation
81c03ad0:	eaadeacd 	swc2	$13,-5427(s5)                                     ; Memory Access: Memory read/write operation
81c03ad4:	b38d100b 	sdl	t5,4107(gp)
81c03ad8:	6a7fa3a1 	ldl	ra,-23647(s3)
81c03adc:	eeeb6f41 	swc3	$11,28481(s7)                                     ; Memory Access: Memory read/write operation
81c03ae0:	eacceaac 	swc2	$12,-5460(s6)                                     ; Memory Access: Memory read/write operation
81c03ae4:	eacc4e20 	swc2	$12,20000(s6)                                     ; Memory Access: Memory read/write operation
81c03ae8:	eacc4e10 	swc2	$12,19984(s6)                                     ; Memory Access: Memory read/write operation
81c03aec:	1004c341 	b	zero,a0,0x81bf47f4                                       ; Branch: evaluate condition and jump (error state fallback/looping)
81c03af0:	1a03b483 	0x1a03b483
81c03af4:	65000683 	daddiu	zero,t0,1667
81c03af8:	aea0b684 	sw	zero,-18812(s5)                                     ; Memory Access: Memory read/write operation
81c03afc:	1a036c07 	0x1a036c07
81c03b00:	d6050d9b 	ldc1	$f5,3483(s0)                                     ; Memory Access: Memory read/write operation
81c03b04:	6c0c9305 	ldr	t4,-27899(zero)
81c03b08:	0d9b1a03 	j	0x866c680c                                       ; Jump or subroutine call
81c03b0c:	b27eaba0 	sdl	s8,-21600(s3)
81c03b10:	1a03aaa0 	0x1a03aaa0
81c03b14:	6c020d9b 	ldr	v0,3483(zero)
81c03b18:	b57d2009 	sdr	sp,8201(t3)
81c03b1c:	f018ad80 	scd	t8,-21120(zero)
81c03b20:	ecec6f00 	swc3	$12,28416(a3)                                     ; Memory Access: Memory read/write operation
81c03b24:	1a032403 	0x1a032403
81c03b28:	65000688 	daddiu	zero,t0,1672
81c03b2c:	9e40b675 	lwu	zero,-18827(s2)                                     ; Memory Access: Memory read/write operation
81c03b30:	da609304 	ldc2	$0,-27900(s3)                                     ; Memory Access: Memory read/write operation
81c03b34:	580810d6 	0x580810d6
81c03b38:	68076101 	ldl	a3,24833(zero)
81c03b3c:	f0e0e21d 	scd	zero,-7651(a3)
81c03b40:	7104a790 	0x7104a790
81c03b44:	610b3296 	daddi	t3,t0,12950
81c03b48:	6c00f1c0 	ldr	zero,-3648(zero)
81c03b4c:	6d016b02 	ldr	at,27394(t0)
81c03b50:	3258d404 	andi	t8,s2,0xd404                                     ; Bitwise isolation/masking operation
81c03b54:	650d652b 	daddiu	t5,t0,25899
81c03b58:	4c00f648 	0x4c00f648
81c03b5c:	7105102f 	0x7105102f
81c03b60:	6e38610b 	ldr	t8,24843(s1)
81c03b64:	6f03d604 	ldr	v1,-10748(t8)
81c03b68:	f3c46c02 	scd	a0,27650(s8)
81c03b6c:	324c4e08 	andi	t4,s2,0x4e08                                     ; Bitwise isolation/masking operation
81c03b70:	650c652f 	daddiu	t4,t0,25903
81c03b74:	1023653e 	b	at,v1,0x81c1d070                                       ; Branch: evaluate condition and jump (error state fallback/looping)
81c03b78:	61037106 	daddi	v1,t0,28934
81c03b7c:	d5046d07 	ldc1	$f4,27911(t0)                                     ; Memory Access: Memory read/write operation
81c03b80:	67c21008 	daddiu	v0,s8,4104
81c03b84:	325834cc 	andi	t8,s2,0x34cc                                     ; Bitwise isolation/masking operation
81c03b88:	f1e0ea8d 	scd	zero,-5491(t7)
81c03b8c:	eacd6b1f 	swc2	$13,27423(s6)                                     ; Memory Access: Memory read/write operation
81c03b90:	7106d304 	0x7106d304
81c03b94:	6d046107 	ldr	a0,24839(t0)
81c03b98:	652d6f03 	daddiu	t5,t1,28419
81c03b9c:	f202650f 	scd	v0,25871(s0)
81c03ba0:	100c6c00 	b	zero,t4,0x81c1eba4                                       ; Branch: evaluate condition and jump (error state fallback/looping)
81c03ba4:	60047107 	daddi	a0,zero,28935
81c03ba8:	652b6b01 	daddiu	t3,t1,27393
81c03bac:	10036b00 	b	zero,v1,0x81c1e7b0                                       ; Branch: evaluate condition and jump (error state fallback/looping)
81c03bb0:	652e6e05 	daddiu	t6,t1,28165
81c03bb4:	650b6b04 	daddiu	t3,t0,27396
81c03bb8:	6c00f60f 	ldr	zero,-2545(zero)
81c03bbc:	6548653c 	daddiu	t0,t2,25916
81c03bc0:	6c012002 	ldr	at,8194(zero)
81c03bc4:	6e01654c 	ldr	at,25932(s0)
81c03bc8:	67e64167 	daddiu	a2,ra,16743
81c03bcc:	ebe44b07 	swc2	$4,19207(ra)                                     ; Memory Access: Memory read/write operation
81c03bd0:	6768b450 	daddiu	t0,k1,-19376
81c03bd4:	d20967aa 	lld	t1,26538(s0)
81c03bd8:	6749d305 	daddiu	t1,k0,-11515
81c03bdc:	d2066779 	lld	a2,26489(s0)
81c03be0:	1a03d308 	0x1a03d308
81c03be4:	d5070df0 	ldc1	$f7,3568(t0)                                     ; Memory Access: Memory read/write operation
81c03be8:	94055801 	lhu	a1,22529(zero)                                     ; Memory Access: Memory read/write operation
81c03bec:	120a1a03 	b	s0,t2,0x81c0a3fc                                       ; Branch: evaluate condition and jump (error state fallback/looping)
81c03bf0:	950667b8 	lhu	a2,26552(t0)                                     ; Memory Access: Memory read/write operation
81c03bf4:	1a036785 	0x1a036785
81c03bf8:	95070cd5 	lhu	a3,3285(t0)                                     ; Memory Access: Memory read/write operation
81c03bfc:	9f40b741 	lwu	zero,-18623(k0)                                     ; Memory Access: Memory read/write operation
81c03c00:	b4459ac0 	sdr	a1,-25920(v0)
81c03c04:	93089209 	lbu	t0,-28151(t8)                                     ; Memory Access: Memory read/write operation
81c03c08:	ace02804 	sw	zero,10244(a3)                                     ; Memory Access: Memory read/write operation
81c03c0c:	cce0ef6d 	lwc3	$0,-4243(a3)                                     ; Memory Access: Memory read/write operation
81c03c10:	67e31008 	daddiu	v1,ra,4104
81c03c14:	aca09304 	sw	zero,-27900(a1)                                     ; Memory Access: Memory read/write operation
81c03c18:	ebefef6d 	swc2	$15,-4243(ra)                                     ; Memory Access: Memory read/write operation
81c03c1c:	eb4debac 	swc2	$13,-5204(at)                                 ; Hardware Register Access: sw operation targeting Boot Profile Code Flags at 0x81C000CC
81c03c20:	b73dcc60 	sdr	sp,-13216(t9)
81c03c24:	6c3eafa0 	ldr	s8,-20576(at)
81c03c28:	0da11a03 	j	0x8684680c                                       ; Jump or subroutine call
81c03c2c:	b235d605 	sdl	s5,-10747(s1)
81c03c30:	96059a80 	lhu	a1,-25984(s0)                                     ; Memory Access: Memory read/write operation
81c03c34:	1048dcc0 	b	v0,t0,0x81bfaf38                                       ; Branch: evaluate condition and jump (error state fallback/looping)
81c03c38:	61015808 	daddi	at,t0,22536
81c03c3c:	b6316807 	sdr	s1,26631(s1)
81c03c40:	e2099e80 	sc	t1,-24960(s0)
81c03c44:	f0e09ca0 	scd	zero,-25440(a3)
81c03c48:	d504a268 	ldc1	$f4,-23960(t0)                                     ; Memory Access: Memory read/write operation
81c03c4c:	b534b233 	sdr	s4,-19917(t1)
81c03c50:	aa80280b 	swl	zero,10251(s4)                                     ; Memory Access: Memory read/write operation
81c03c54:	a5606f04 	sh	zero,28420(t3)                                     ; Memory Access: Memory read/write operation
81c03c58:	cae0ef8d 	lwc2	$0,-4211(s7)                                     ; Memory Access: Memory read/write operation
81c03c5c:	b3312318 	sdl	s1,8984(t9)
81c03c60:	ab806d0b 	swl	zero,27915(gp)                                     ; Memory Access: Memory read/write operation
81c03c64:	1011eaab 	b	zero,s1,0x81bfe714                                       ; Branch: evaluate condition and jump (error state fallback/looping)
81c03c68:	f701aac0 	sdc1	$f1,-21824(t8)                                     ; Memory Access: Memory read/write operation
81c03c6c:	33726c05 	andi	s2,k1,0x6c05                                     ; Bitwise isolation/masking operation
81c03c70:	efccef8b 	swc3	$12,-4213(s8)                                     ; Memory Access: Memory read/write operation
81c03c74:	a5c03360 	sh	zero,13152(t6)                                     ; Memory Access: Memory read/write operation
81c03c78:	ca60ebed 	lwc2	$0,-5139(s3)                                     ; Memory Access: Memory read/write operation
81c03c7c:	b3292608 	sdl	t1,9736(t9)
81c03c80:	6a0aabe0 	ldl	t2,-21536(s0)
81c03c84:	eaed6d06 	swc2	$13,27910(s7)                                     ; Memory Access: Memory read/write operation
81c03c88:	ea8cecab 	swc2	$12,-4949(s4)                                     ; Memory Access: Memory read/write operation
81c03c8c:	b323cb40 	sdl	v1,-13504(t9)
81c03c90:	1a03aba0 	0x1a03aba0
81c03c94:	6c1a0da1 	ldr	k0,3489(zero)
81c03c98:	a640b621 	sh	zero,-18911(s2)                                     ; Memory Access: Memory read/write operation
81c03c9c:	ec0b220c 	swc3	$11,8716(zero)                                     ; Memory Access: Memory read/write operation
81c03ca0:	f7c0ec0d 	sdc1	$f0,-5107(s8)                                     ; Memory Access: Memory read/write operation
81c03ca4:	1a033482 	0x1a033482
81c03ca8:	65000686 	daddiu	zero,t0,1670
81c03cac:	afa0b71d 	sw	zero,-18659(sp)                                     ; Memory Access: Memory read/write operation
81c03cb0:	0da11a03 	j	0x8684680c                                       ; Jump or subroutine call
81c03cb4:	b2136c27 	sdl	s3,27687(s0)
81c03cb8:	96049aa0 	lhu	a0,-25952(s0)                                     ; Memory Access: Memory read/write operation
81c03cbc:	1004ddc0 	b	zero,a0,0x81bfb3c0                                       ; Branch: evaluate condition and jump (error state fallback/looping)
81c03cc0:	1a03b40f 	0x1a03b40f
81c03cc4:	65000683 	daddiu	zero,t0,1667
81c03cc8:	610b7102 	daddi	t3,t0,28930
81c03ccc:	2803b216 	slti	v1,zero,-19946
81c03cd0:	6c00c200 	ldr	zero,-15872(zero)
81c03cd4:	6b011003 	ldl	at,4099(t8)
81c03cd8:	6c01c260 	ldr	at,-15776(zero)
81c03cdc:	11e71a03 	b	t7,a3,0x81c0a4ec                                       ; Branch: evaluate condition and jump (error state fallback/looping)
81c03ce0:	490c6500 	0x490c6500
81c03ce4:	b4113728 	sdr	s1,14120(zero)
81c03ce8:	d902e4e5 	ldc2	$2,-6939(t0)                                     ; Memory Access: Memory read/write operation
81c03cec:	910c970d 	lbu	t4,-26867(t0)                                     ; Memory Access: Memory read/write operation
81c03cf0:	ef00900b 	swc3	$0,-28661(t8)                                     ; Memory Access: Memory read/write operation
81c03cf4:	65006307 	daddiu	zero,t0,25351
81c03cf8:	81c05ac0 	lb	zero,23232(t6)                                     ; Memory Access: Memory read/write operation
81c03cfc:	81c058f0 	lb	zero,22768(t6)                                     ; Memory Access: Memory read/write operation
81c03d00:	81c05574 	lb	zero,21876(t6)                                     ; Memory Access: Memory read/write operation
81c03d04:	81c059a0 	lb	zero,22944(t6)                                     ; Memory Access: Memory read/write operation
81c03d08:	81c059b4 	lb	zero,22964(t6)                                     ; Memory Access: Memory read/write operation
81c03d0c:	81c059b8 	lb	zero,22968(t6)                                     ; Memory Access: Memory read/write operation
81c03d10:	00050004 	sllv	zero,a1,zero
81c03d14:	81c059ac 	lb	zero,22956(t6)                                     ; Memory Access: Memory read/write operation
81c03d18:	81c059ae 	lb	zero,22958(t6)                                     ; Memory Access: Memory read/write operation
81c03d1c:	81c05c62 	lb	zero,23650(t6)                                     ; Memory Access: Memory read/write operation
81c03d20:	81c059a4 	lb	zero,22948(t6)                                     ; Memory Access: Memory read/write operation
81c03d24:	81c059b0 	lb	zero,22960(t6)                                     ; Memory Access: Memory read/write operation
81c03d28:	81c05d3c 	lb	zero,23868(t6)                                     ; Memory Access: Memory read/write operation
81c03d2c:	d00b63f9 	lld	t3,25593(zero)
81c03d30:	68ff6e00 	ldl	ra,28160(a3)
81c03d34:	620dd10c 	daddi	t5,s0,-12020
81c03d38:	6724e8ac 	daddiu	a0,t9,-5972
81c03d3c:	0504d604 	0x504d604
81c03d40:	dd40675f 	ld	zero,26463(t2)
81c03d44:	3488b36b 	ori	t0,a0,0xb36b                                      ; Bitwise isolation/masking operation
81c03d48:	7106e389 	0x7106e389
81c03d4c:	610ada00 	daddi	t2,t0,-9728
81c03d50:	f7c0ec0b 	sdc1	$f0,-5109(s8)                                     ; Memory Access: Memory read/write operation
81c03d54:	f01f3282 	scd	ra,12930(zero)
81c03d58:	6c046f1f 	ldr	a0,28447(zero)
81c03d5c:	15431a03 	b	t2,v1,0x81c0a56c                                       ; Branch: evaluate condition and jump (error state fallback/looping)
81c03d60:	1084e757 	b	a0,a0,0x81bfdac0                                       ; Branch: evaluate condition and jump (error state fallback/looping)
81c03d64:	614c7108 	daddi	t4,t2,28936
81c03d68:	6fffb463 	ldr	ra,-19357(ra)
81c03d6c:	6e0167b0 	ldr	at,26544(s0)
81c03d70:	0df01a03 	j	0x87c0680c                                       ; Jump or subroutine call
81c03d74:	b7614f01 	sdr	at,20225(k1)
81c03d78:	9ea09fc0 	lwu	zero,-24640(s5)                                     ; Memory Access: Memory read/write operation
81c03d7c:	b360d506 	sdl	zero,-11002(k1)
81c03d80:	c3005801 	ll	zero,22529(t8)
81c03d84:	1a036c05 	0x1a036c05
81c03d88:	67b8120a 	daddiu	t8,sp,4618
81c03d8c:	2004b25d 	addi	a0,zero,-19875                                     ; Math operation on registers
81c03d90:	6b10a282 	ldl	s0,-23934(t8)
81c03d94:	1004eb8d 	b	zero,a0,0x81bfebcc                                       ; Branch: evaluate condition and jump (error state fallback/looping)
81c03d98:	6b11a2a2 	ldl	s1,-23902(t8)
81c03d9c:	ebaceb6b 	swc2	$12,-5269(sp)                                     ; Memory Access: Memory read/write operation
81c03da0:	b258c262 	sdl	t8,-15774(s2)
81c03da4:	1a03aaa1 	0x1a03aaa1
81c03da8:	6c090da1 	ldr	t1,3489(zero)
81c03dac:	9ac0b253 	lwr	zero,-19885(s6)                                     ; Memory Access: Memory read/write operation
81c03db0:	b5559706 	sdr	s5,-26874(t2)
81c03db4:	2018dee0 	addi	t8,zero,-8480                                     ; Math operation on registers
81c03db8:	9b609a60 	lwr	zero,-26016(k1)                                     ; Memory Access: Memory read/write operation
81c03dbc:	a5e06c02 	sh	zero,27650(t7)                                     ; Memory Access: Memory read/write operation
81c03dc0:	ec8b6e01 	swc3	$11,28161(a0)                                     ; Memory Access: Memory read/write operation
81c03dc4:	ececee0c 	swc3	$12,-4596(a3)                                     ; Memory Access: Memory read/write operation
81c03dc8:	c580eccd 	lwc1	$f0,-4915(t4)                                     ; Memory Access: Memory read/write operation
81c03dcc:	6c02ada0 	ldr	v0,-21088(zero)
81c03dd0:	1a03d208 	0x1a03d208
81c03dd4:	d3070da1 	lld	a3,3489(t8)
81c03dd8:	95079308 	lhu	a3,-27896(t0)                                     ; Memory Access: Memory read/write operation
81c03ddc:	dca09b80 	ld	zero,-25728(a1)
81c03de0:	09511a03 	j	0x8544680c                                       ; Jump or subroutine call
81c03de4:	10426790 	b	v0,v0,0x81c1dc28                                       ; Branch: evaluate condition and jump (error state fallback/looping)
81c03de8:	d2086c00 	lld	t0,27648(s0)
81c03dec:	09511a03 	j	0x8544680c                                       ; Jump or subroutine call
81c03df0:	9208d507 	lbu	t0,-11001(s0)                                     ; Memory Access: Memory read/write operation
81c03df4:	9d609aa0 	lwu	zero,-25952(t3)                                     ; Memory Access: Memory read/write operation
81c03df8:	6c029507 	ldr	v0,-27385(zero)
81c03dfc:	1029a5c0 	b	at,t1,0x81bed500                                       ; Branch: evaluate condition and jump (error state fallback/looping)
81c03e00:	6134710a 	daddi	s4,t1,28938
81c03e04:	b540b23d 	sdr	zero,-19907(t2)
81c03e08:	9a602019 	lwr	zero,8217(s3)                                     ; Memory Access: Memory read/write operation
81c03e0c:	6f019b60 	ldr	at,-25760(t8)
81c03e10:	36e4ef0c 	ori	a0,s7,0xef0c                                      ; Bitwise isolation/masking operation
81c03e14:	a5e06c03 	sh	zero,27651(t7)                                     ; Memory Access: Memory read/write operation
81c03e18:	ececec8b 	swc3	$12,-4981(a3)                                     ; Memory Access: Memory read/write operation
81c03e1c:	c580eccd 	lwc1	$f0,-4915(t4)                                     ; Memory Access: Memory read/write operation
81c03e20:	6c02ada0 	ldr	v0,-21088(zero)
81c03e24:	1a03d208 	0x1a03d208
81c03e28:	d3070da1 	lld	a3,3489(t8)
81c03e2c:	96079708 	lhu	a3,-26872(s0)                                     ; Memory Access: Memory read/write operation
81c03e30:	67909f40 	daddiu	s0,gp,-24768
81c03e34:	09591a03 	j	0x8564680c                                       ; Jump or subroutine call
81c03e38:	1018dac0 	b	zero,t8,0x81bfa93c                                       ; Branch: evaluate condition and jump (error state fallback/looping)
81c03e3c:	d2086c00 	lld	t0,27648(s0)
81c03e40:	09591a03 	j	0x8564680c                                       ; Jump or subroutine call
81c03e44:	9208d507 	lbu	t0,-11001(s0)                                     ; Memory Access: Memory read/write operation
81c03e48:	9d609aa0 	lwu	zero,-25952(t3)                                     ; Memory Access: Memory read/write operation
81c03e4c:	6c039507 	ldr	v1,-27385(zero)
81c03e50:	ef8ba5c0 	swc3	$11,-23104(gp)                                     ; Memory Access: Memory read/write operation
81c03e54:	c5e0efcc 	lwc1	$f0,-4148(t7)                                     ; Memory Access: Memory read/write operation
81c03e58:	6c02ada0 	ldr	v0,-21088(zero)
81c03e5c:	1a03d208 	0x1a03d208
81c03e60:	d3070da1 	lld	a3,3489(t8)
81c03e64:	96079408 	lhu	a3,-27640(s0)                                     ; Memory Access: Memory read/write operation
81c03e68:	dac09c40 	ldc2	$0,-25536(s6)                                     ; Memory Access: Memory read/write operation
81c03e6c:	9b40b327 	lwr	zero,-19673(k0)                                     ; Memory Access: Memory read/write operation
81c03e70:	e2b1352c 	sc	s1,13612(s5)
81c03e74:	7605acc1 	j	0x8816b305                                       ; Jump or subroutine call
81c03e78:	6a016126 	ldl	at,24870(s0)
81c03e7c:	9c80e944 	lwu	zero,-5820(a0)                                     ; Memory Access: Memory read/write operation
81c03e80:	67b067e2 	daddiu	s0,sp,26594
81c03e84:	d2086e00 	lld	t0,28160(s0)
81c03e88:	0df01a03 	j	0x87c0680c                                       ; Jump or subroutine call
81c03e8c:	7109d307 	0x7109d307
81c03e90:	93079208 	lbu	a3,-28152(t8)                                     ; Memory Access: Memory read/write operation
81c03e94:	9b806127 	lwr	zero,24871(gp)                                     ; Memory Access: Memory read/write operation
81c03e98:	f040b31d 	scd	zero,-19683(v0)
81c03e9c:	e96cac28 	swc2	$12,-21464(t3)                                     ; Memory Access: Memory read/write operation
81c03ea0:	9c922121 	lwu	s2,8481(a0)                                     ; Memory Access: Memory read/write operation
81c03ea4:	6e0167b0 	ldr	at,26544(s0)
81c03ea8:	0df01a03 	j	0x87c0680c                                       ; Jump or subroutine call
81c03eac:	b41967e2 	sdr	t9,26594(zero)
81c03eb0:	2504a4a0 	addiu	a0,t0,-23392                                     ; Math operation on registers
81c03eb4:	06671a03 	0x6671a03
81c03eb8:	10146790 	b	zero,s4,0x81c1dcfc                                       ; Branch: evaluate condition and jump (error state fallback/looping)
81c03ebc:	1a032013 	0x1a032013
81c03ec0:	65000666 	daddiu	zero,t0,1638
81c03ec4:	6765100f 	daddiu	a1,k1,4111
81c03ec8:	2002a484 	addi	v0,zero,-23420                                     ; Math operation on registers
81c03ecc:	10012c07 	b	zero,at,0x81c0eeec                                       ; Branch: evaluate condition and jump (error state fallback/looping)
81c03ed0:	e2612405 	sc	at,9221(s3)
81c03ed4:	068c1a03 	teqi	s4,6659
81c03ed8:	10049880 	b	zero,a0,0x81bea0dc                                       ; Branch: evaluate condition and jump (error state fallback/looping)
81c03edc:	1a03e27d 	0x1a03e27d
81c03ee0:	9f80068d 	lwu	zero,1677(gp)                                     ; Memory Access: Memory read/write operation
81c03ee4:	910c970d 	lbu	t4,-26867(t0)                                     ; Memory Access: Memory read/write operation
81c03ee8:	ef00900b 	swc3	$0,-28661(t8)                                     ; Memory Access: Memory read/write operation
81c03eec:	65006307 	daddiu	zero,t0,25351
81c03ef0:	81c05d3c 	lb	zero,23868(t6)                                     ; Memory Access: Memory read/write operation
81c03ef4:	00050400 	sll	zero,a1,0x10
81c03ef8:	81c05574 	lb	zero,21876(t6)                                     ; Memory Access: Memory read/write operation
81c03efc:	81c05c6c 	lb	zero,23660(t6)                                     ; Memory Access: Memory read/write operation
81c03f00:	81c059bc 	lb	zero,22972(t6)                                     ; Memory Access: Memory read/write operation
81c03f04:	81c059a0 	lb	zero,22944(t6)                                     ; Memory Access: Memory read/write operation
81c03f08:	81c05ac0 	lb	zero,23232(t6)                                     ; Memory Access: Memory read/write operation
81c03f0c:	00050008 	0x50008
81c03f10:	81c05c5e 	lb	zero,23646(t6)                                     ; Memory Access: Memory read/write operation
81c03f14:	f0b063fd 	scd	s0,25597(a1)
81c03f18:	62056d08 	daddi	a1,s0,27912
81c03f1c:	03cd1a03 	0x3cd1a03
81c03f20:	6d0a6c40 	ldr	t2,27712(t0)
81c03f24:	03cd1a03 	0x3cd1a03
81c03f28:	1a036c42 	0x1a036c42
81c03f2c:	6c1002c4 	ldr	s0,708(zero)
81c03f30:	1a036c42 	0x1a036c42
81c03f34:	6d0003cd 	ldr	zero,973(t0)
81c03f38:	6d00f0b0 	ldr	zero,-3920(t0)
81c03f3c:	03cd1a03 	0x3cd1a03
81c03f40:	1a036c40 	0x1a036c40
81c03f44:	65000da6 	daddiu	zero,t0,3494
81c03f48:	ef009705 	swc3	$0,-26875(t8)                                     ; Memory Access: Memory read/write operation
81c03f4c:	65006303 	daddiu	zero,t0,25347
81c03f50:	d00563fc 	lld	a1,25596(zero)
81c03f54:	98a0b00c 	lwr	zero,-20468(a1)                                     ; Memory Access: Memory read/write operation
81c03f58:	d1066207 	lld	a2,25095(t0)
81c03f5c:	ed8f9d20 	swc3	$15,-25312(t4)                                     ; Memory Access: Memory read/write operation
81c03f60:	9cc0b40a 	lwu	zero,-19446(a2)                                     ; Memory Access: Memory read/write operation
81c03f64:	6b1ff7ff 	ldl	ra,-2049(t8)
81c03f68:	dca0edcc 	ld	zero,-4660(a1)
81c03f6c:	1a036c11 	0x1a036c11
81c03f70:	ed6c03cd 	swc3	$12,973(t3)                                     ; Memory Access: Memory read/write operation
81c03f74:	da209840 	ldc2	$0,-26560(s1)                                     ; Memory Access: Memory read/write operation
81c03f78:	91069707 	lbu	a2,-26873(t0)                                     ; Memory Access: Memory read/write operation
81c03f7c:	ef009005 	swc3	$0,-28667(t8)                                     ; Memory Access: Memory read/write operation
81c03f80:	65006304 	daddiu	zero,t0,25348
81c03f84:	81c05574 	lb	zero,21876(t6)                                     ; Memory Access: Memory read/write operation
81c03f88:	81c05c68 	lb	zero,23656(t6)                                     ; Memory Access: Memory read/write operation
81c03f8c:	d10863fb 	lld	t0,25595(t0)
81c03f90:	d0076209 	lld	a3,25097(zero)
81c03f94:	9940b10e 	lwr	zero,-20210(t2)                                     ; Memory Access: Memory read/write operation
81c03f98:	9ae06764 	lwr	zero,26468(s7)                                     ; Memory Access: Memory read/write operation
81c03f9c:	98a0b00d 	lwr	zero,-20467(a1)                                     ; Memory Access: Memory read/write operation
81c03fa0:	ebad6c11 	swc2	$13,27665(sp)                                     ; Memory Access: Memory read/write operation
81c03fa4:	6d1ff7ff 	ldr	ra,-2049(t0)
81c03fa8:	d860ed6c 	ldc2	$0,-4756(v1)                                     ; Memory Access: Memory read/write operation
81c03fac:	03cd1a03 	0x3cd1a03
81c03fb0:	98a0d704 	lwr	zero,-10492(a1)                                     ; Memory Access: Memory read/write operation
81c03fb4:	eccb6e0d 	swc3	$11,28173(a2)                                     ; Memory Access: Memory read/write operation
81c03fb8:	d8a0ed8c 	ldc2	$0,-4724(a1)                                     ; Memory Access: Memory read/write operation
81c03fbc:	92049960 	lbu	a0,-26272(s0)                                     ; Memory Access: Memory read/write operation
81c03fc0:	9709db40 	lhu	t1,-9408(t8)                                     ; Memory Access: Memory read/write operation
81c03fc4:	90079108 	lbu	a3,-28408(zero)                                     ; Memory Access: Memory read/write operation
81c03fc8:	6305ef00 	daddi	a1,t8,-4352
81c03fcc:	81c05574 	lb	zero,21876(t6)                                     ; Memory Access: Memory read/write operation
81c03fd0:	81c05c68 	lb	zero,23656(t6)                                     ; Memory Access: Memory read/write operation
81c03fd4:	63fab315 	daddi	k0,ra,-19691
81c03fd8:	d10a9b40 	lld	t2,-25792(t0)
81c03fdc:	d009620b 	lld	t1,25099(zero)
81c03fe0:	e98c69ff 	swc2	$12,27135(t4)                                     ; Memory Access: Memory read/write operation
81c03fe4:	21099a00 	addi	t1,t0,-26112                                     ; Math operation on registers
81c03fe8:	f4c96f00 	sdc1	$f9,28416(a2)                                     ; Memory Access: Memory read/write operation
81c03fec:	b5106c0c 	sdr	s0,27660(t0)
81c03ff0:	1a0367c7 	0x1a0367c7
81c03ff4:	d704066e 	ldc1	$f4,1646(t8)                                     ; Memory Access: Memory read/write operation
81c03ff8:	b40d100f 	sdr	t5,4111(zero)
81c03ffc:	066f1a03 	0x66f1a03
81c04000:	b20c6d00 	sdl	t4,27904(s0)
81c04004:	2408a280 	li	t0,-23936                                      ; Load Immediate pseudo-instruction
81c04008:	1a036c05 	0x1a036c05
81c0400c:	d2060fe3 	lld	a2,4067(s0)
81c04010:	c620b609 	lwc1	$f0,-18935(s1)                                     ; Memory Access: Memory read/write operation
81c04014:	c5209506 	lwc1	$f0,-27386(t1)                                     ; Memory Access: Memory read/write operation
81c04018:	9b20b304 	lwr	zero,-19708(t9)                                     ; Memory Access: Memory read/write operation
81c0401c:	970bd900 	lhu	t3,-9984(t8)                                     ; Memory Access: Memory read/write operation
81c04020:	9009910a 	lbu	t1,-28406(zero)                                     ; Memory Access: Memory read/write operation
81c04024:	6306ef00 	daddi	a2,t8,-4352
81c04028:	81c05574 	lb	zero,21876(t6)                                     ; Memory Access: Memory read/write operation
81c0402c:	81c0426d 	lb	zero,17005(t6)                                     ; Memory Access: Memory read/write operation
81c04030:	81c05c5c 	lb	zero,23644(t6)                                     ; Memory Access: Memory read/write operation
81c04034:	81c05c5d 	lb	zero,23645(t6)                                     ; Memory Access: Memory read/write operation
81c04038:	d00863fb 	lld	t0,25595(zero)
81c0403c:	b0146209 	sdl	s4,25097(zero)
81c04040:	220f9840 	addi	t7,s0,-26560                                     ; Math operation on registers
81c04044:	1a03b313 	0x1a03b313
81c04048:	9b80068f 	lwr	zero,1679(gp)                                     ; Memory Access: Memory read/write operation
81c0404c:	1a032206 	0x1a032206
81c04050:	6c000ff5 	ldr	zero,4085(zero)
81c04054:	6c009840 	ldr	zero,-26560(zero)
81c04058:	98401002 	lwr	zero,4098(v0)                                     ; Memory Access: Memory read/write operation
81c0405c:	ea406c01 	swc2	$0,27649(s2)                                     ; Memory Access: Memory read/write operation
81c04060:	67bd6500 	daddiu	sp,sp,25856
81c04064:	6c00b00b 	ldr	zero,-20469(zero)
81c04068:	c5986e01 	lwc1	$f24,28161(t4)                                     ; Memory Access: Memory read/write operation
81c0406c:	c5d59880 	lwc1	$f21,-26496(t6)                                     ; Memory Access: Memory read/write operation
81c04070:	c5d7c5d6 	lwc1	$f23,-14890(t6)                                     ; Memory Access: Memory read/write operation
81c04074:	0515f000 	0x515f000
81c04078:	06911a03 	b	s4,0x81c0a888                                       ; Branch: evaluate condition and jump (error state fallback/looping)
81c0407c:	1a036500 	0x1a036500
81c04080:	98800690 	lwr	zero,1680(a0)                                     ; Memory Access: Memory read/write operation
81c04084:	90089709 	lbu	t0,-26871(zero)                                     ; Memory Access: Memory read/write operation
81c04088:	6305ef00 	daddi	a1,t8,-4352
81c0408c:	81c05c58 	lb	zero,23640(t6)                                     ; Memory Access: Memory read/write operation
81c04090:	81c0599c 	lb	zero,22940(t6)                                     ; Memory Access: Memory read/write operation
81c04094:	d00563fc 	lld	a1,25596(zero)
81c04098:	98a0b00c 	lwr	zero,-20468(a1)                                     ; Memory Access: Memory read/write operation
81c0409c:	d1066207 	lld	a2,25095(t0)
81c040a0:	ed8f9d20 	swc3	$15,-25312(t4)                                     ; Memory Access: Memory read/write operation
81c040a4:	9cc0b40a 	lwu	zero,-19446(a2)                                     ; Memory Access: Memory read/write operation
81c040a8:	6b1ff7ff 	ldl	ra,-2049(t8)
81c040ac:	dca0edcc 	ld	zero,-4660(a1)
81c040b0:	1a036c01 	0x1a036c01
81c040b4:	ed6c03cd 	swc3	$12,973(t3)                                     ; Memory Access: Memory read/write operation
81c040b8:	da209840 	ldc2	$0,-26560(s1)                                     ; Memory Access: Memory read/write operation
81c040bc:	91069707 	lbu	a2,-26873(t0)                                     ; Memory Access: Memory read/write operation
81c040c0:	ef009005 	swc3	$0,-28667(t8)                                     ; Memory Access: Memory read/write operation
81c040c4:	65006304 	daddiu	zero,t0,25348
81c040c8:	81c05574 	lb	zero,21876(t6)                                     ; Memory Access: Memory read/write operation
81c040cc:	81c05c64 	lb	zero,23652(t6)                                     ; Memory Access: Memory read/write operation
81c040d0:	d10863fb 	lld	t0,25595(t0)
81c040d4:	d0076209 	lld	a3,25097(zero)
81c040d8:	9940b10f 	lwr	zero,-20209(t2)                                     ; Memory Access: Memory read/write operation
81c040dc:	9ae06764 	lwr	zero,26468(s7)                                     ; Memory Access: Memory read/write operation
81c040e0:	98a0b00e 	lwr	zero,-20466(a1)                                     ; Memory Access: Memory read/write operation
81c040e4:	ebad6c01 	swc2	$13,27649(sp)                                     ; Memory Access: Memory read/write operation
81c040e8:	6d1ff7ff 	ldr	ra,-2049(t0)
81c040ec:	d860ed6c 	ldc2	$0,-4756(v1)                                     ; Memory Access: Memory read/write operation
81c040f0:	03cd1a03 	0x3cd1a03
81c040f4:	98a0d704 	lwr	zero,-10492(a1)                                     ; Memory Access: Memory read/write operation
81c040f8:	6e01f423 	ldr	at,-3037(s0)
81c040fc:	ed8ceccb 	swc3	$12,-4917(t4)                                     ; Memory Access: Memory read/write operation
81c04100:	9960d8a0 	lwr	zero,-10080(t3)                                     ; Memory Access: Memory read/write operation
81c04104:	db409204 	ldc2	$0,-28156(k0)                                     ; Memory Access: Memory read/write operation
81c04108:	91089709 	lbu	t0,-26871(t0)                                     ; Memory Access: Memory read/write operation
81c0410c:	ef009007 	swc3	$0,-28665(t8)                                     ; Memory Access: Memory read/write operation
81c04110:	65006305 	daddiu	zero,t0,25349
81c04114:	81c05574 	lb	zero,21876(t6)                                     ; Memory Access: Memory read/write operation
81c04118:	81c05c64 	lb	zero,23652(t6)                                     ; Memory Access: Memory read/write operation
81c0411c:	6b1ff1e0 	ldl	ra,-3616(t8)
81c04120:	eb8c63fc 	swc2	$12,25596(gp)                                     ; Memory Access: Memory read/write operation
81c04124:	b212d006 	sdl	s2,-12282(s0)
81c04128:	30003060 	andi	zero,zero,0x3060                                     ; Bitwise isolation/masking operation
81c0412c:	e84d6207 	swc2	$13,25095(v0)                                     ; Memory Access: Memory read/write operation
81c04130:	03fd1a03 	0x3fd1a03
81c04134:	22fc6c00 	addi	gp,s7,27648                                     ; Math operation on registers
81c04138:	67b06c00 	daddiu	s0,sp,27648
81c0413c:	04011a03 	b	0x81c0a94c                                       ; Branch: evaluate condition and jump (error state fallback/looping)
81c04140:	22f66e01 	addi	s6,s7,28161                                     ; Math operation on registers
81c04144:	03f91a03 	0x3f91a03
81c04148:	22fc6c00 	addi	gp,s7,27648                                     ; Math operation on registers
81c0414c:	1a036c00 	0x1a036c00
81c04150:	050414c1 	0x50414c1
81c04154:	60047201 	daddi	a0,zero,29185
81c04158:	1a03b406 	0x1a03b406
81c0415c:	65000683 	daddiu	zero,t0,1667
81c04160:	679d9707 	daddiu	sp,gp,-26873
81c04164:	9006ac48 	lbu	a2,-21432(zero)                                     ; Memory Access: Memory read/write operation
81c04168:	6304ef00 	daddi	a0,t8,-4352
81c0416c:	02000000 	0x2000000
81c04170:	81c058f0 	lb	zero,22768(t6)                                     ; Memory Access: Memory read/write operation
81c04174:	6c1d63fd 	ldr	sp,25597(zero)
81c04178:	1a036205 	0x1a036205
81c0417c:	d0041047 	lld	a0,4167(zero)
81c04180:	6e01f300 	ldr	at,-3328(s0)
81c04184:	6cffebcb 	ldr	ra,-5173(a3)
81c04188:	4c01eb4c 	0x4c01eb4c
81c0418c:	3260eb8d 	andi	zero,s3,0xeb8d                                     ; Bitwise isolation/masking operation
81c04190:	30a33540 	andi	v1,a1,0x3540                                     ; Bitwise isolation/masking operation
81c04194:	f7ff3503 	sdc1	$f31,13571(ra)                                     ; Memory Access: Memory read/write operation
81c04198:	ed0c681f 	swc3	$12,26655(t0)                                     ; Memory Access: Memory read/write operation
81c0419c:	03cd1a03 	0x3cd1a03
81c041a0:	1a036c1d 	0x1a036c1d
81c041a4:	6c1c1047 	ldr	gp,4167(zero)
81c041a8:	6f01f700 	ldr	at,-2304(t8)
81c041ac:	6c00f006 	ldr	zero,-4090(zero)
81c041b0:	ec4deeeb 	swc3	$13,-4373(v0)                                     ; Memory Access: Memory read/write operation
81c041b4:	f201eccc 	scd	at,-4916(s0)
81c041b8:	eccd4e01 	swc3	$13,19969(a2)                                     ; Memory Access: Memory read/write operation
81c041bc:	32603380 	andi	zero,s3,0x3380                                     ; Bitwise isolation/masking operation
81c041c0:	35a33543 	ori	v1,t5,0x3543                                      ; Bitwise isolation/masking operation
81c041c4:	1a03ed0c 	0x1a03ed0c
81c041c8:	6c1c03cd 	ldr	gp,973(zero)
81c041cc:	90049705 	lbu	a0,-26875(zero)                                     ; Memory Access: Memory read/write operation
81c041d0:	6303ef00 	daddi	v1,t8,-4352
81c041d4:	620563fd 	daddi	a1,s0,25597
81c041d8:	0d811a03 	j	0x8604680c                                       ; Jump or subroutine call
81c041dc:	1a03d004 	0x1a03d004
81c041e0:	6c070d6c 	ldr	a3,3436(zero)
81c041e4:	0d571a03 	j	0x855c680c                                       ; Jump or subroutine call
81c041e8:	68006c07 	ldl	zero,27655(zero)
81c041ec:	dc00b40f 	ld	zero,-19441(zero)
81c041f0:	6c05f340 	ldr	a1,-3264(zero)
81c041f4:	10341a03 	b	at,s4,0x81c0aa04                                       ; Branch: evaluate condition and jump (error state fallback/looping)
81c041f8:	b30d6500 	sdl	t5,25856(t8)
81c041fc:	1a036c03 	0x1a036c03
81c04200:	db000fe3 	ldc2	$0,4067(t8)                                     ; Memory Access: Memory read/write operation
81c04204:	aaa0b20b 	swl	zero,-19957(s5)                                     ; Memory Access: Memory read/write operation
81c04208:	03cd1a03 	0x3cd1a03
81c0420c:	1a036c02 	0x1a036c02
81c04210:	6500105d 	daddiu	zero,t0,4189
81c04214:	0fc51a03 	j	0x8f14680c                                       ; Jump or subroutine call
81c04218:	1a036500 	0x1a036500
81c0421c:	65001421 	daddiu	zero,t0,5153
81c04220:	90049705 	lbu	a0,-26875(zero)                                     ; Memory Access: Memory read/write operation
81c04224:	6303ef00 	daddi	v1,t8,-4352
81c04228:	81c05c64 	lb	zero,23652(t6)                                     ; Memory Access: Memory read/write operation
81c0422c:	81c05c68 	lb	zero,23656(t6)                                     ; Memory Access: Memory read/write operation
81c04230:	81c059a0 	lb	zero,22944(t6)                                     ; Memory Access: Memory read/write operation
81c04234:	d00763fb 	lld	a3,25595(zero)
81c04238:	e88c68ff 	swc2	$12,26879(a0)                                     ; Memory Access: Memory read/write operation
81c0423c:	d1086209 	lld	t0,25097(t0)
81c04240:	b109280c 	sdl	t1,10252(t0)
81c04244:	9ea099c0 	lwu	zero,-26176(s5)                                     ; Memory Access: Memory read/write operation
81c04248:	1a036c00 	0x1a036c00
81c0424c:	d50414a6 	ldc1	$f4,5286(t0)                                     ; Memory Access: Memory read/write operation
81c04250:	c400b406 	lwc1	$f0,-19450(zero)                                     ; Memory Access: Memory read/write operation
81c04254:	93049940 	lbu	a0,-26304(t8)                                     ; Memory Access: Memory read/write operation
81c04258:	9709da60 	lhu	t1,-9632(t8)                                     ; Memory Access: Memory read/write operation
81c0425c:	90079108 	lbu	a3,-28408(zero)                                     ; Memory Access: Memory read/write operation
81c04260:	6305ef00 	daddi	a1,t8,-4352
81c04264:	81c05574 	lb	zero,21876(t6)                                     ; Memory Access: Memory read/write operation
81c04268:	81c05c5f 	lb	zero,23647(t6)                                     ; Memory Access: Memory read/write operation
81c0426c:	d10863fb 	lld	t0,25595(t0)
81c04270:	d0076209 	lld	a3,25097(zero)
81c04274:	a140b11e 	sb	zero,-20194(t2)                                     ; Memory Access: Memory read/write operation
81c04278:	1a032a34 	0x1a032a34
81c0427c:	6c000d0d 	ldr	zero,3341(zero)
81c04280:	2a0a6702 	slti	t2,s0,26370
81c04284:	1a03b41b 	0x1a03b41b
81c04288:	6d00066f 	ldr	zero,1647(t0)
81c0428c:	d0046e00 	lld	a0,28160(zero)
81c04290:	b5186c20 	sdr	t8,27680(t0)
81c04294:	102267e6 	b	at,v0,0x81c1e230                                       ; Branch: evaluate condition and jump (error state fallback/looping)
81c04298:	10471a03 	b	v0,a3,0x81c0aaa8                                       ; Branch: evaluate condition and jump (error state fallback/looping)
81c0429c:	6c006c11 	ldr	zero,27665(zero)
81c042a0:	108d1a03 	b	a0,t5,0x81c0aab0                                       ; Branch: evaluate condition and jump (error state fallback/looping)
81c042a4:	6b106702 	ldl	s0,26370(t8)
81c042a8:	eb0c6c01 	swc2	$12,27649(t8)                                     ; Memory Access: Memory read/write operation
81c042ac:	2306c180 	addi	a2,t8,-16000                                     ; Math operation on registers
81c042b0:	0fe31a03 	j	0x8f8c680c                                       ; Jump or subroutine call
81c042b4:	1a036c04 	0x1a036c04
81c042b8:	6c0202c4 	ldr	v0,708(zero)
81c042bc:	ea0c6a40 	swc2	$12,27200(s0)                                     ; Memory Access: Memory read/write operation
81c042c0:	6e012207 	ldr	at,8711(s0)
81c042c4:	c5c0b50c 	lwc1	$f0,-19188(t6)                                     ; Memory Access: Memory read/write operation
81c042c8:	0fd41a03 	j	0x8f50680c                                       ; Jump or subroutine call
81c042cc:	10096c01 	b	zero,t1,0x81c1f2d4                                       ; Branch: evaluate condition and jump (error state fallback/looping)
81c042d0:	f004d204 	scd	a0,-11772(zero)
81c042d4:	b5096c00 	sdr	t1,27648(t0)
81c042d8:	6f006e04 	ldr	zero,28164(t8)
81c042dc:	066e1a03 	tnei	s3,6659
81c042e0:	97096500 	lhu	t1,25856(t8)                                     ; Memory Access: Memory read/write operation
81c042e4:	90079108 	lbu	a3,-28408(zero)                                     ; Memory Access: Memory read/write operation
81c042e8:	6305ef00 	daddi	a1,t8,-4352
81c042ec:	81c05c5c 	lb	zero,23644(t6)                                     ; Memory Access: Memory read/write operation
81c042f0:	81c0426d 	lb	zero,17005(t6)                                     ; Memory Access: Memory read/write operation
81c042f4:	81c05c5d 	lb	zero,23645(t6)                                     ; Memory Access: Memory read/write operation
81c042f8:	81c042fd 	lb	zero,17149(t6)                                     ; Memory Access: Memory read/write operation
81c042fc:	d11263f6 	lld	s2,25590(t0)
81c04300:	6c006724 	ldr	zero,26404(zero)
81c04304:	1a036213 	0x1a036213
81c04308:	d0110d0d 	lld	s1,3341(zero)
81c0430c:	6c202a08 	ldr	zero,10760(at)
81c04310:	67d1b559 	daddiu	s1,s8,-19111
81c04314:	1a036f00 	0x1a036f00
81c04318:	d204066e 	lld	a0,1646(s0)
81c0431c:	680110a5 	ldl	at,4261(zero)
81c04320:	e82c6a00 	swc2	$12,27136(at)                                     ; Memory Access: Memory read/write operation
81c04324:	2004d20e 	addi	a0,zero,-11762                                     ; Math operation on registers
81c04328:	10471a03 	b	v0,a3,0x81c0ab38                                       ; Branch: evaluate condition and jump (error state fallback/looping)
81c0432c:	d20e6c01 	lld	t6,27649(s0)
81c04330:	eb2c6b02 	swc2	$12,27394(t9)                                     ; Memory Access: Memory read/write operation
81c04334:	d30b6c00 	lld	t3,27648(t8)
81c04338:	2304d40d 	addi	a0,t8,-11251                                     ; Math operation on registers
81c0433c:	10471a03 	b	v0,a3,0x81c0ab4c                                       ; Branch: evaluate condition and jump (error state fallback/looping)
81c04340:	d20d6c14 	lld	t5,27668(s0)
81c04344:	10471a03 	b	v0,a3,0x81c0ab54                                       ; Branch: evaluate condition and jump (error state fallback/looping)
81c04348:	6c006c11 	ldr	zero,27665(zero)
81c0434c:	108d1a03 	b	a0,t5,0x81c0ab5c                                       ; Branch: evaluate condition and jump (error state fallback/looping)
81c04350:	6d00d20c 	ldr	zero,-11764(t0)
81c04354:	202dd50a 	addi	t5,at,-10998                                     ; Math operation on registers
81c04358:	6e80970e 	ldr	zero,-26866(s4)
81c0435c:	2608eeec 	addiu	t0,s0,-4372                                     ; Math operation on registers
81c04360:	10341a03 	b	at,s4,0x81c0ab70                                       ; Branch: evaluate condition and jump (error state fallback/looping)
81c04364:	b4456c20 	sdr	a1,27680(v0)
81c04368:	6b02a440 	ldl	v0,-23488(t8)
81c0436c:	2a02d30a 	slti	v0,s0,-11510
81c04370:	d50a6d00 	ldc1	$f10,27904(t0)                                     ; Memory Access: Memory read/write operation
81c04374:	6e10970c 	ldr	s0,-26868(s0)
81c04378:	2610eeec 	addiu	s0,s0,-4372                                     ; Math operation on registers
81c0437c:	0fe31a03 	j	0x8f8c680c                                       ; Jump or subroutine call
81c04380:	930c6c04 	lbu	t4,27652(t8)                                     ; Memory Access: Memory read/write operation
81c04384:	ea6c6a40 	swc2	$12,27200(s3)                                     ; Memory Access: Memory read/write operation
81c04388:	b53d2a09 	sdr	sp,10761(t1)
81c0438c:	2406a580 	li	a2,-23168                                      ; Load Immediate pseudo-instruction
81c04390:	9e40b63c 	lwu	zero,-18884(s2)                                     ; Memory Access: Memory read/write operation
81c04394:	ea402264 	swc2	$0,8804(s2)                                     ; Memory Access: Memory read/write operation
81c04398:	10616c02 	b	v1,at,0x81c1f3a4                                       ; Branch: evaluate condition and jump (error state fallback/looping)
81c0439c:	2709970a 	addiu	t1,t8,-26870                                     ; Math operation on registers
81c043a0:	960a6a00 	lhu	t2,27136(s0)                                     ; Memory Access: Memory read/write operation
81c043a4:	6c00f004 	ldr	zero,-4092(zero)
81c043a8:	67e2b533 	daddiu	v0,ra,-19149
81c043ac:	066e1a03 	tnei	s3,6659
81c043b0:	930bd204 	lbu	t3,-11772(t8)                                     ; Memory Access: Memory read/write operation
81c043b4:	940d230d 	lhu	t5,8973(zero)                                     ; Memory Access: Memory read/write operation
81c043b8:	ed8c6d80 	swc3	$12,28032(t4)                                     ; Memory Access: Memory read/write operation
81c043bc:	2506b32f 	addiu	a2,t0,-19665                                     ; Math operation on registers
81c043c0:	c3c06e00 	ll	zero,28160(s8)
81c043c4:	14031a03 	b	zero,v1,0x81c0abd4                                       ; Branch: evaluate condition and jump (error state fallback/looping)
81c043c8:	10026c01 	b	zero,v0,0x81c1f3d0                                       ; Branch: evaluate condition and jump (error state fallback/looping)
81c043cc:	c3e06f01 	ll	zero,28417(ra)
81c043d0:	a340b32d 	sb	zero,-19667(k0)                                     ; Memory Access: Memory read/write operation
81c043d4:	6d042228 	ldr	a0,8744(t0)
81c043d8:	2525ed2c 	addiu	a1,t1,-4820                                     ; Math operation on registers
81c043dc:	6a40940c 	ldl	zero,-27636(s2)
81c043e0:	b328ea8c 	sdl	t0,-5492(t9)
81c043e4:	2a19b426 	slti	t9,s0,-19418
81c043e8:	9b40c440 	lwr	zero,-15296(k0)                                     ; Memory Access: Memory read/write operation
81c043ec:	ea402202 	swc2	$0,8706(s2)                                     ; Memory Access: Memory read/write operation
81c043f0:	b7266c00 	sdr	a2,27648(t9)
81c043f4:	6a0067bd 	ldl	zero,26557(s0)
81c043f8:	9f806b01 	lwu	zero,27393(gp)                                     ; Memory Access: Memory read/write operation
81c043fc:	c57ec55d 	lwc1	$f30,-15011(t3)                                     ; Memory Access: Memory read/write operation
81c04400:	f020c57f 	scd	zero,-14977(at)
81c04404:	f000c540 	scd	zero,-15040(zero)
81c04408:	1a03051d 	0x1a03051d
81c0440c:	d70f0691 	ldc1	$f15,1681(t8)                                     ; Memory Access: Memory read/write operation
81c04410:	1a03960f 	0x1a03960f
81c04414:	9e800690 	lwu	zero,1680(s4)                                     ; Memory Access: Memory read/write operation
81c04418:	9b401006 	lwr	zero,4102(k0)                                     ; Memory Access: Memory read/write operation
81c0441c:	c4c06e01 	lwc1	$f0,28161(a2)                                     ; Memory Access: Memory read/write operation
81c04420:	ea402202 	swc2	$0,8706(s2)                                     ; Memory Access: Memory read/write operation
81c04424:	20046c01 	addi	a0,zero,27649                                     ; Math operation on registers
81c04428:	6c02970a 	ldr	v0,-26870(zero)
81c0442c:	2402ecec 	li	v0,-4884                                      ; Load Immediate pseudo-instruction
81c04430:	2206920b 	addi	a2,s0,-28149                                     ; Math operation on registers
81c04434:	a3a0b311 	sb	zero,-19695(sp)                                     ; Memory Access: Memory read/write operation
81c04438:	1a032503 	0x1a032503
81c0443c:	6c101025 	ldr	s0,4133(zero)
81c04440:	960a2004 	lhu	t2,8196(s0)                                     ; Memory Access: Memory read/write operation
81c04444:	e8cc6804 	swc2	$12,26628(a2)                                     ; Memory Access: Memory read/write operation
81c04448:	6c042003 	ldr	a0,8195(zero)
81c0444c:	240cec2c 	li	t4,-5076                                      ; Load Immediate pseudo-instruction
81c04450:	a720b70b 	sh	zero,-18677(t9)                                     ; Memory Access: Memory read/write operation
81c04454:	1a032109 	0x1a032109
81c04458:	6c010fd4 	ldr	at,4052(zero)
81c0445c:	950a1005 	lhu	t2,4101(t0)                                     ; Memory Access: Memory read/write operation
81c04460:	ed4d6a04 	swc3	$13,27140(t2)                                     ; Memory Access: Memory read/write operation
81c04464:	179cd50a 	b	gp,gp,0x81bf9890                                       ; Branch: evaluate condition and jump (error state fallback/looping)
81c04468:	91129713 	lbu	s2,-26861(t0)                                     ; Memory Access: Memory read/write operation
81c0446c:	ef009011 	swc3	$0,-28655(t8)                                     ; Memory Access: Memory read/write operation
81c04470:	6500630a 	daddiu	zero,t0,25354
81c04474:	81c042fd 	lb	zero,17149(t6)                                     ; Memory Access: Memory read/write operation
81c04478:	81c0599b 	lb	zero,22939(t6)                                     ; Memory Access: Memory read/write operation
81c0447c:	81c05c5d 	lb	zero,23645(t6)                                     ; Memory Access: Memory read/write operation
81c04480:	81c05c58 	lb	zero,23640(t6)                                     ; Memory Access: Memory read/write operation
81c04484:	81c05c5c 	lb	zero,23644(t6)                                     ; Memory Access: Memory read/write operation
81c04488:	81c0599c 	lb	zero,22940(t6)                                     ; Memory Access: Memory read/write operation
81c0448c:	d00b63f9 	lld	t3,25593(zero)
81c04490:	d10c620d 	lld	t4,25101(t0)
81c04494:	2c046704 	sltiu	a0,zero,26372
81c04498:	1a03b4ae 	0x1a03b4ae
81c0449c:	65000683 	daddiu	zero,t0,1667
81c044a0:	b2ad6f00 	sdl	t5,28416(s5)
81c044a4:	6c02b1ad 	ldr	v0,-20051(zero)
81c044a8:	1a03d900 	0x1a03d900
81c044ac:	c2e002b8 	ll	zero,696(s7)
81c044b0:	b3ab5a04 	sdl	t3,23044(sp)
81c044b4:	6e0c6c0a 	ldr	t4,27658(s0)
81c044b8:	c3806d0b 	ll	zero,27915(gp)
81c044bc:	c3a1c3c2 	ll	at,-15422(sp)
81c044c0:	b3a86c08 	sdl	t0,27656(sp)
81c044c4:	6c046101 	ldr	a0,24833(zero)
81c044c8:	b3a4c380 	sdl	a0,-15488(sp)
81c044cc:	b5a69b60 	sdr	a2,-25760(t5)
81c044d0:	9b80f100 	lwr	zero,-3840(gp)                                     ; Memory Access: Memory read/write operation
81c044d4:	e88fadc0 	swc2	$15,-21056(a0)                                     ; Memory Access: Memory read/write operation
81c044d8:	cd00e8cc 	lwc3	$0,-5940(t0)                                     ; Memory Access: Memory read/write operation
81c044dc:	9be4f100 	lwr	a0,-3840(ra)                                     ; Memory Access: Memory read/write operation
81c044e0:	a500ad21 	sh	zero,-21215(t0)                                     ; Memory Access: Memory read/write operation
81c044e4:	ec2cecef 	swc3	$12,-4881(at)                                     ; Memory Access: Memory read/write operation
81c044e8:	6801360a 	ldl	at,13834(zero)
81c044ec:	ee0ccd81 	swc3	$12,-12927(s0)                                     ; Memory Access: Memory read/write operation
81c044f0:	31c4b49e 	andi	a0,t6,0xb49e                                     ; Bitwise isolation/masking operation
81c044f4:	a4c06f03 	sh	zero,28419(a2)                                     ; Memory Access: Memory read/write operation
81c044f8:	eeecefeb 	swc3	$12,-4117(s7)                                     ; Memory Access: Memory read/write operation
81c044fc:	c4c0ee2d 	lwc1	$f0,-4563(a2)                                     ; Memory Access: Memory read/write operation
81c04500:	5a04a522 	0x5a04a522
81c04504:	ee0c362a 	swc3	$12,13866(s0)                                     ; Memory Access: Memory read/write operation
81c04508:	35c4a402 	ori	a0,t6,0xa402                                      ; Bitwise isolation/masking operation
81c0450c:	e8ade8ec 	swc2	$13,-5908(a1)                                     ; Memory Access: Memory read/write operation
81c04510:	6004c402 	daddi	a0,zero,-15358
81c04514:	6a10a4a3 	ldl	s0,-23389(s0)
81c04518:	c443eaad 	lwc1	$f3,-5459(v0)                                     ; Memory Access: Memory read/write operation
81c0451c:	a328f100 	sb	t0,-3840(t9)                                     ; Memory Access: Memory read/write operation
81c04520:	2107b292 	addi	a3,t0,-19822                                     ; Math operation on registers
81c04524:	6c7fa200 	ldr	ra,-24064(v1)
81c04528:	e88ca2e2 	swc2	$12,-23838(a0)                                     ; Memory Access: Memory read/write operation
81c0452c:	ececc200 	swc3	$12,-15872(a3)                                     ; Memory Access: Memory read/write operation
81c04530:	a2a01007 	sb	zero,4103(s5)                                     ; Memory Access: Memory read/write operation
81c04534:	ec8b6c80 	swc3	$11,27776(a0)                                     ; Memory Access: Memory read/write operation
81c04538:	ed8da2c2 	swc3	$13,-23870(t4)                                     ; Memory Access: Memory read/write operation
81c0453c:	eccdc2a0 	swc3	$13,-15712(a2)                                     ; Memory Access: Memory read/write operation
81c04540:	f100c282 	scd	zero,-15742(t0)
81c04544:	b289a329 	sdl	t1,-23767(s4)
81c04548:	a2012108 	sb	at,8456(s0)                                     ; Memory Access: Memory read/write operation
81c0454c:	eccb6e02 	swc3	$11,28162(a2)                                     ; Memory Access: Memory read/write operation
81c04550:	e88ca2e3 	swc2	$12,-23837(a0)                                     ; Memory Access: Memory read/write operation
81c04554:	ececc201 	swc3	$12,-15871(a3)                                     ; Memory Access: Memory read/write operation
81c04558:	a2211006 	sb	at,4102(s1)                                     ; Memory Access: Memory read/write operation
81c0455c:	a2a36c01 	sb	v1,27649(s5)                                     ; Memory Access: Memory read/write operation
81c04560:	c221e98d 	ll	at,-5747(s1)
81c04564:	c283ecad 	ll	v1,-4947(s4)
81c04568:	a38af100 	sb	t2,-3840(gp)                                     ; Memory Access: Memory read/write operation
81c0456c:	2408b27f 	li	t0,-19841                                      ; Load Immediate pseudo-instruction
81c04570:	6e03a201 	ldr	v1,-24063(s0)
81c04574:	a2e3eccb 	sb	v1,-4917(s7)                                     ; Memory Access: Memory read/write operation
81c04578:	c201e88c 	ll	at,-6004(s0)
81c0457c:	1006ecec 	b	zero,a2,0x81bff930                                       ; Branch: evaluate condition and jump (error state fallback/looping)
81c04580:	6c02a221 	ldr	v0,-24031(zero)
81c04584:	e98da2a3 	swc2	$13,-23901(t4)                                     ; Memory Access: Memory read/write operation
81c04588:	ecadc221 	swc3	$13,-15839(a1)                                     ; Memory Access: Memory read/write operation
81c0458c:	f100c283 	scd	zero,-15741(t0)
81c04590:	b276a38b 	sdl	s6,-23669(s3)
81c04594:	a2012408 	sb	at,9224(s0)                                     ; Memory Access: Memory read/write operation
81c04598:	eccb6e05 	swc3	$11,28165(a2)                                     ; Memory Access: Memory read/write operation
81c0459c:	e88ca2e3 	swc2	$12,-23837(a0)                                     ; Memory Access: Memory read/write operation
81c045a0:	ececc201 	swc3	$12,-15871(a3)                                     ; Memory Access: Memory read/write operation
81c045a4:	a2211006 	sb	at,4102(s1)                                     ; Memory Access: Memory read/write operation
81c045a8:	a2a36c04 	sb	v1,27652(s5)                                     ; Memory Access: Memory read/write operation
81c045ac:	c221e98d 	ll	at,-5747(s1)
81c045b0:	c283ecad 	ll	v1,-4947(s4)
81c045b4:	a36cf100 	sb	t4,-3840(k1)                                     ; Memory Access: Memory read/write operation
81c045b8:	230bb26c 	addi	t3,t8,-19860                                     ; Math operation on registers
81c045bc:	6809a2e1 	ldl	t1,-23839(zero)
81c045c0:	a283eb0b 	sb	v1,-5365(s4)                                     ; Memory Access: Memory read/write operation
81c045c4:	c2e1ef6c 	ll	at,-4244(s7)
81c045c8:	c263eb8c 	ll	v1,-5236(s3)
81c045cc:	b269b468 	sdl	t1,-19352(s3)
81c045d0:	a2a11007 	sb	at,4103(s5)                                     ; Memory Access: Memory read/write operation
81c045d4:	a2c36b08 	sb	v1,27400(s6)                                     ; Memory Access: Memory read/write operation
81c045d8:	c2a1ed6d 	ll	at,-4755(s5)
81c045dc:	17f5ebcd 	b	ra,s5,0x81bff514                                       ; Branch: evaluate condition and jump (error state fallback/looping)
81c045e0:	da206900 	ldc2	$0,26880(s1)                                     ; Memory Access: Memory read/write operation
81c045e4:	4a04da2d 	c2	0x4da2d
81c045e8:	61faea8a 	daddi	k0,t7,-5494
81c045ec:	b363b262 	sdl	v1,-19870(k1)
81c045f0:	c2806c00 	ll	zero,27648(s4)
81c045f4:	ea6a4a01 	swc2	$10,18945(s3)                                     ; Memory Access: Memory read/write operation
81c045f8:	1a0361fb 	0x1a0361fb
81c045fc:	6c000d0d 	ldr	zero,3341(zero)
81c04600:	b4542a04 	sdr	s4,10756(v0)
81c04604:	06831a03 	b	s4,0x81c0ae14                                       ; Branch: evaluate condition and jump (error state fallback/looping)
81c04608:	6c306500 	ldr	s0,25856(at)
81c0460c:	03cd1a03 	0x3cd1a03
81c04610:	f0106d01 	scd	s0,27905(zero)
81c04614:	1a036d01 	0x1a036d01
81c04618:	6c3003cd 	ldr	s0,973(at)
81c0461c:	6800b158 	ldl	zero,-20136(zero)
81c04620:	9e60b64e 	lwu	zero,-18866(s3)                                     ; Memory Access: Memory read/write operation
81c04624:	370c6d00 	ori	t4,t8,0x6d00                                      ; Bitwise isolation/masking operation
81c04628:	e3e9d9a0 	sc	t1,-9824(ra)
81c0462c:	a2a67006 	sb	a2,28678(s5)                                     ; Memory Access: Memory read/write operation
81c04630:	6d016101 	ldr	at,24833(t0)
81c04634:	0f4b1a03 	j	0x8d2c680c                                       ; Jump or subroutine call
81c04638:	b3486790 	sdl	t0,26512(k0)
81c0463c:	320c9be0 	andi	t4,s0,0x9be0                                     ; Bitwise isolation/masking operation
81c04640:	aa81e749 	swl	at,-6327(s4)                                     ; Memory Access: Memory read/write operation
81c04644:	61037402 	daddi	v1,t0,29698
81c04648:	068b1a03 	tltiu	s4,6659
81c0464c:	48019a80 	0x48019a80
81c04650:	4904700e 	0x4904700e
81c04654:	680061e5 	ldl	zero,25061(zero)
81c04658:	b2406e0c 	sdl	zero,28172(s2)
81c0465c:	9a60e8d8 	lwr	zero,-5928(s3)                                     ; Memory Access: Memory read/write operation
81c04660:	6790e912 	daddiu	s0,gp,-5870
81c04664:	9fbee33d 	lwu	s8,-7363(sp)                                     ; Memory Access: Memory read/write operation
81c04668:	0e5c1a03 	j	0x8970680c                                       ; Jump or subroutine call
81c0466c:	9408d208 	lhu	t0,-11768(zero)                                     ; Memory Access: Memory read/write operation
81c04670:	e5259ca0 	swc1	$f5,-25440(t1)                                     ; Memory Access: Memory read/write operation
81c04674:	760499dc 	j	0x88126771                                       ; Jump or subroutine call
81c04678:	f0606107 	scd	zero,24839(v1)
81c0467c:	7502a9b6 	j	0x840aa6d9                                       ; Jump or subroutine call
81c04680:	1a036103 	0x1a036103
81c04684:	999d068b 	lwr	sp,1675(t4)                                     ; Memory Access: Memory read/write operation
81c04688:	700a4801 	0x700a4801
81c0468c:	b13661e5 	sdl	s6,25061(t1)
81c04690:	1a03a9a0 	0x1a03a9a0
81c04694:	6c0303cd 	ldr	v1,973(zero)
81c04698:	b034a9a1 	sdl	s4,-22111(at)
81c0469c:	03cd1a03 	0x3cd1a03
81c046a0:	a8a06c08 	swl	zero,27656(a1)                                     ; Memory Access: Memory read/write operation
81c046a4:	03cd1a03 	0x3cd1a03
81c046a8:	a8a16c04 	swl	at,27652(a1)                                     ; Memory Access: Memory read/write operation
81c046ac:	03cd1a03 	0x3cd1a03
81c046b0:	6c196c09 	ldr	t9,27657(zero)
81c046b4:	03cd1a03 	0x3cd1a03
81c046b8:	b3326daa 	sdl	s2,28074(t9)
81c046bc:	1a03aba0 	0x1a03aba0
81c046c0:	6c3603cd 	ldr	s6,973(at)
81c046c4:	afa0b730 	sw	zero,-18640(sp)                                     ; Memory Access: Memory read/write operation
81c046c8:	03cd1a03 	0x3cd1a03
81c046cc:	1a036c07 	0x1a036c07
81c046d0:	6cff0d27 	ldr	ra,3367(a3)
81c046d4:	1a03b121 	0x1a03b121
81c046d8:	6c010dde 	ldr	at,3550(zero)
81c046dc:	f1009940 	scd	zero,-26304(t0)
81c046e0:	1a039a90 	0x1a039a90
81c046e4:	6d070672 	ldr	a3,1650(t0)
81c046e8:	10751a03 	b	v1,s5,0x81c0aef8                                       ; Branch: evaluate condition and jump (error state fallback/looping)
81c046ec:	1a036500 	0x1a036500
81c046f0:	6c00108d 	ldr	zero,4237(zero)
81c046f4:	b4186b01 	sdr	t8,27393(zero)
81c046f8:	c4609940 	lwc1	$f0,-26304(v1)                                     ; Memory Access: Memory read/write operation
81c046fc:	7001aa11 	0x7001aa11
81c04700:	b6226002 	sdr	v0,24578(s1)
81c04704:	f120c660 	scd	zero,-14752(t1)
81c04708:	b5219a14 	sdr	at,-26092(t1)
81c0470c:	2508ed0e 	addiu	t0,t0,-4850                                     ; Math operation on registers
81c04710:	e051b220 	sc	s1,-19936(v0)
81c04714:	61045c07 	daddi	a0,t0,23559
81c04718:	1a03b40e 	0x1a03b40e
81c0471c:	65000683 	daddiu	zero,t0,1667
81c04720:	b31db71b 	sdl	sp,-18661(t8)
81c04724:	db00ef0e 	ldc2	$0,-4338(t8)                                     ; Memory Access: Memory read/write operation
81c04728:	6d01270e 	ldr	at,9998(t0)
81c0472c:	690067dd 	ldl	zero,26589(t0)
81c04730:	d407b41a 	ldc1	$f7,-19430(zero)                                     ; Memory Access: Memory read/write operation
81c04734:	c6b6c6b5 	lwc1	$f22,-14667(s5)                                     ; Memory Access: Memory read/write operation
81c04738:	c638c6b7 	lwc1	$f24,-14665(s1)                                     ; Memory Access: Memory read/write operation
81c0473c:	05046790 	0x5046790
81c04740:	068e1a03 	tnei	s4,6659
81c04744:	970dd104 	lhu	t5,-12028(t8)                                     ; Memory Access: Memory read/write operation
81c04748:	900b910c 	lbu	t3,-28404(zero)                                     ; Memory Access: Memory read/write operation
81c0474c:	6307ef00 	daddi	a3,t8,-4352
81c04750:	81c058f0 	lb	zero,22768(t6)                                     ; Memory Access: Memory read/write operation
81c04754:	81c05c5e 	lb	zero,23646(t6)                                     ; Memory Access: Memory read/write operation
81c04758:	81c05ac0 	lb	zero,23232(t6)                                     ; Memory Access: Memory read/write operation
81c0475c:	81c05c70 	lb	zero,23664(t6)                                     ; Memory Access: Memory read/write operation
81c04760:	81c05c74 	lb	zero,23668(t6)                                     ; Memory Access: Memory read/write operation
81c04764:	81c059c0 	lb	zero,22976(t6)                                     ; Memory Access: Memory read/write operation
81c04768:	81c059bc 	lb	zero,22972(t6)                                     ; Memory Access: Memory read/write operation
81c0476c:	81c05cb4 	lb	zero,23732(t6)                                     ; Memory Access: Memory read/write operation
81c04770:	81c05c80 	lb	zero,23680(t6)                                     ; Memory Access: Memory read/write operation
81c04774:	81c05ce8 	lb	zero,23784(t6)                                     ; Memory Access: Memory read/write operation
81c04778:	81c05cef 	lb	zero,23791(t6)                                     ; Memory Access: Memory read/write operation
81c0477c:	81c05d3c 	lb	zero,23868(t6)                                     ; Memory Access: Memory read/write operation
81c04780:	81c059a8 	lb	zero,22952(t6)                                     ; Memory Access: Memory read/write operation
81c04784:	81c059b4 	lb	zero,22964(t6)                                     ; Memory Access: Memory read/write operation
81c04788:	81c05c6d 	lb	zero,23661(t6)                                     ; Memory Access: Memory read/write operation
81c0478c:	00010000 	sll	zero,at,0x0
81c04790:	fffdffff 	sd	sp,-1(ra)
81c04794:	81c0599c 	lb	zero,22940(t6)                                     ; Memory Access: Memory read/write operation
81c04798:	81c033d1 	lb	zero,13265(t6)                                     ; Memory Access: Memory read/write operation
81c0479c:	f020b203 	scd	zero,-19965(at)
81c047a0:	e820c280 	swc2	$0,-15744(at)                                     ; Memory Access: Memory read/write operation
81c047a4:	65006500 	daddiu	zero,t0,25856
81c047a8:	81c059c8 	lb	zero,22984(t6)                                     ; Memory Access: Memory read/write operation
81c047ac:	6a1ff7ff 	ldl	ra,-2049(s0)
81c047b0:	b40dea8c 	sdr	t5,-5492(zero)
81c047b4:	6b649cc0 	ldl	a0,-25408(k1)
81c047b8:	aea2f120 	sw	v0,-3808(s5)                                     ; Memory Access: Memory read/write operation
81c047bc:	ef78e2bf 	swc3	$24,-7489(k1)                                     ; Memory Access: Memory read/write operation
81c047c0:	ae54f100 	sw	s4,-3840(s2)                                     ; Memory Access: Memory read/write operation
81c047c4:	e2b3eb12 	sc	s3,-5358(s5)
81c047c8:	eb9a6a00 	swc2	$26,27136(gp)                                     ; Memory Access: Memory read/write operation
81c047cc:	e8e52c01 	swc2	$5,11265(a3)                                     ; Memory Access: Memory read/write operation
81c047d0:	5301eb12 	b	t8,at,0x81bff41c                                       ; Branch: evaluate condition and jump (error state fallback/looping)
81c047d4:	53646105 	b	k1,a0,0x81c1cbec                                       ; Branch: evaluate condition and jump (error state fallback/looping)
81c047d8:	60026a64 	daddi	v0,zero,27236
81c047dc:	ea6c6aff 	swc2	$12,27391(s3)                                     ; Memory Access: Memory read/write operation
81c047e0:	6500e820 	daddiu	zero,t0,-6112
81c047e4:	81c05ac0 	lb	zero,23232(t6)                                     ; Memory Access: Memory read/write operation
81c047e8:	63fd6aff 	daddi	sp,ra,27391
81c047ec:	6205ea8c 	daddi	a1,s0,-5492
81c047f0:	2209b30d 	addi	t1,s0,-19699                                     ; Math operation on registers
81c047f4:	f008aba0 	scd	t0,-21600(zero)
81c047f8:	eacb6e01 	swc2	$11,28161(s6)                                     ; Memory Access: Memory read/write operation
81c047fc:	6c00f010 	ldr	zero,-4080(zero)
81c04800:	ec8beaac 	swc3	$11,-5460(a0)                                     ; Memory Access: Memory read/write operation
81c04804:	f0081004 	scd	t0,4100(zero)
81c04808:	ab806f00 	swl	zero,28416(gp)                                     ; Memory Access: Memory read/write operation
81c0480c:	ea8deaeb 	swc2	$13,-5397(s4)                                     ; Memory Access: Memory read/write operation
81c04810:	b305cb40 	sdl	a1,-13504(t8)
81c04814:	1a03aba0 	0x1a03aba0
81c04818:	6c150da1 	ldr	s5,3489(zero)
81c0481c:	ef009705 	swc3	$0,-26875(t8)                                     ; Memory Access: Memory read/write operation
81c04820:	65006303 	daddiu	zero,t0,25347
81c04824:	81c059ec 	lb	zero,23020(t6)                                     ; Memory Access: Memory read/write operation
81c04828:	6aff63fd 	ldl	ra,25597(s7)
81c0482c:	d0046205 	lld	a0,25093(zero)
81c04830:	b519eaac 	sdr	t9,-5460(t0)
81c04834:	9b009d60 	lwr	zero,-25248(t8)                                     ; Memory Access: Memory read/write operation
81c04838:	e391b318 	sc	s1,-19688(gp)
81c0483c:	2208c440 	addi	t0,s0,-15296                                     ; Math operation on registers
81c04840:	a3c0b417 	sb	zero,-19433(s8)                                     ; Memory Access: Memory read/write operation
81c04844:	6a002e02 	ldl	zero,11778(s0)
81c04848:	4b011003 	c2	0x1011003
81c0484c:	61f9eb8a 	daddi	t9,t7,-5238
81c04850:	a3e0b314 	sb	zero,-19692(ra)                                     ; Memory Access: Memory read/write operation
81c04854:	2716ef4e 	addiu	s6,t8,-4274                                     ; Math operation on registers
81c04858:	b313c340 	sdl	s3,-15552(t8)
81c0485c:	f0012205 	scd	at,8709(zero)
81c04860:	ab806a01 	swl	zero,27137(gp)                                     ; Memory Access: Memory read/write operation
81c04864:	1007ea4b 	b	zero,a3,0x81bff194                                       ; Branch: evaluate condition and jump (error state fallback/looping)
81c04868:	f001aba0 	scd	at,-21600(zero)
81c0486c:	f4006a00 	sdc1	$f0,27136(zero)                                     ; Memory Access: Memory read/write operation
81c04870:	eaad6c01 	swc2	$13,27649(s5)                                     ; Memory Access: Memory read/write operation
81c04874:	ea8cec8b 	swc2	$12,-4981(s4)                                     ; Memory Access: Memory read/write operation
81c04878:	b30bcb40 	sdl	t3,-13504(t8)
81c0487c:	1a03aba0 	0x1a03aba0
81c04880:	6c160da1 	ldr	s6,3489(zero)
81c04884:	9fc0b704 	lwu	zero,-18684(s8)                                     ; Memory Access: Memory read/write operation
81c04888:	9705de00 	lhu	a1,-8704(t8)                                     ; Memory Access: Memory read/write operation
81c0488c:	ef009004 	swc3	$0,-28668(t8)                                     ; Memory Access: Memory read/write operation
81c04890:	65006303 	daddiu	zero,t0,25347
81c04894:	81c05574 	lb	zero,21876(t6)                                     ; Memory Access: Memory read/write operation
81c04898:	81c05d14 	lb	zero,23828(t6)                                     ; Memory Access: Memory read/write operation
81c0489c:	81c05d1b 	lb	zero,23835(t6)                                     ; Memory Access: Memory read/write operation
81c048a0:	81c059fc 	lb	zero,23036(t6)                                     ; Memory Access: Memory read/write operation
81c048a4:	81c059f0 	lb	zero,23024(t6)                                     ; Memory Access: Memory read/write operation
81c048a8:	d10863fb 	lld	t0,25595(t0)
81c048ac:	d0076209 	lld	a3,25097(zero)
81c048b0:	9940b112 	lwr	zero,-20206(t2)                                     ; Memory Access: Memory read/write operation
81c048b4:	b0129ac0 	sdl	s2,-25920(zero)
81c048b8:	f180a880 	scd	zero,-22400(t4)
81c048bc:	edab6d01 	swc3	$11,27905(t5)                                     ; Memory Access: Memory read/write operation
81c048c0:	4b016bff 	c2	0x1016bff
81c048c4:	ed6ded8c 	swc3	$13,-4724(t3)                                     ; Memory Access: Memory read/write operation
81c048c8:	6f1ff7ff 	ldr	ra,-2049(t8)
81c048cc:	6c16edec 	ldr	s6,-4628(zero)
81c048d0:	1a03c8a0 	0x1a03c8a0
81c048d4:	d60403cd 	ldc1	$f4,973(s0)                                     ; Memory Access: Memory read/write operation
81c048d8:	f67fa8a0 	sdc1	$f31,-22368(s3)                                     ; Memory Access: Memory read/write operation
81c048dc:	ed8c6c1f 	swc3	$12,27679(t4)                                     ; Memory Access: Memory read/write operation
81c048e0:	1a036c16 	0x1a036c16
81c048e4:	c8a003cd 	lwc2	$0,973(a1)                                     ; Memory Access: Memory read/write operation
81c048e8:	92049960 	lbu	a0,-26272(s0)                                     ; Memory Access: Memory read/write operation
81c048ec:	9709db40 	lhu	t1,-9408(t8)                                     ; Memory Access: Memory read/write operation
81c048f0:	90079108 	lbu	a3,-28408(zero)                                     ; Memory Access: Memory read/write operation
81c048f4:	6305ef00 	daddi	a1,t8,-4352
81c048f8:	81c05574 	lb	zero,21876(t6)                                     ; Memory Access: Memory read/write operation
81c048fc:	81c059f0 	lb	zero,23024(t6)                                     ; Memory Access: Memory read/write operation
81c04900:	d10663fc 	lld	a2,25596(t0)
81c04904:	6c216724 	ldr	at,26404(at)
81c04908:	1a036207 	0x1a036207
81c0490c:	d0051047 	lld	a1,4167(zero)
81c04910:	eb2c6b03 	swc2	$12,27395(t9)                                     ; Memory Access: Memory read/write operation
81c04914:	f7f93460 	sdc1	$f25,13408(ra)                                     ; Memory Access: Memory read/write operation
81c04918:	3790681f 	ori	s0,gp,0x681f                                      ; Bitwise isolation/masking operation
81c0491c:	e8ede84c 	swc2	$13,-6068(a3)                                     ; Memory Access: Memory read/write operation
81c04920:	1a036c21 	0x1a036c21
81c04924:	67b003cd 	daddiu	s0,sp,973
81c04928:	6e00f008 	ldr	zero,-4088(s0)
81c0492c:	f7ffe9cb 	sdc1	$f31,-5685(ra)                                     ; Memory Access: Memory read/write operation
81c04930:	e90d6d1f 	swc2	$13,27935(t0)                                     ; Memory Access: Memory read/write operation
81c04934:	67b1e9ac 	daddiu	s1,sp,-5716
81c04938:	03cd1a03 	0x3cd1a03
81c0493c:	1a036c21 	0x1a036c21
81c04940:	6c2002c4 	ldr	zero,708(at)
81c04944:	6d1ff7e7 	ldr	ra,-2073(t0)
81c04948:	6a1ff7ff 	ldl	ra,-2049(s0)
81c0494c:	6c21ed2c 	ldr	at,-4820(at)
81c04950:	03cd1a03 	0x3cd1a03
81c04954:	1a03ed4c 	0x1a03ed4c
81c04958:	6c3f1047 	ldr	ra,4167(at)
81c0495c:	6b00f407 	ldl	zero,-3065(t8)
81c04960:	3462eb4c 	ori	v0,v1,0xeb4c                                      ; Bitwise isolation/masking operation
81c04964:	6b00348a 	ldl	zero,13450(t8)
81c04968:	4cff2407 	0x4cff2407
81c0496c:	ece46f01 	swc3	$4,28417(a3)                                     ; Memory Access: Memory read/write operation
81c04970:	30c036e0 	andi	zero,a2,0x36e0                                     ; Bitwise isolation/masking operation
81c04974:	33a33503 	andi	v1,sp,0x3503                                     ; Bitwise isolation/masking operation
81c04978:	ea6d9707 	swc2	$13,-26873(s3)                                     ; Memory Access: Memory read/write operation
81c0497c:	6c1ff3e0 	ldr	ra,-3104(zero)
81c04980:	9106ea8c 	lbu	a2,-5492(t0)                                     ; Memory Access: Memory read/write operation
81c04984:	ef009005 	swc3	$0,-28667(t8)                                     ; Memory Access: Memory read/write operation
81c04988:	65006304 	daddiu	zero,t0,25348
81c0498c:	6c0263fc 	ldr	v0,25596(zero)
81c04990:	d1066207 	lld	a2,25095(t0)
81c04994:	12401a03 	b	s2,0x81c0b1a4                                       ; Branch: evaluate condition and jump (error state fallback/looping)
81c04998:	f3e0d005 	scd	zero,-12283(ra)
81c0499c:	ea0c681f 	swc2	$12,26655(s0)                                     ; Memory Access: Memory read/write operation
81c049a0:	3140f500 	andi	zero,t2,0xf500                                     ; Bitwise isolation/masking operation
81c049a4:	12401a03 	b	s2,0x81c0b1b4                                       ; Branch: evaluate condition and jump (error state fallback/looping)
81c049a8:	ea0c6c01 	swc2	$12,27649(s0)                                     ; Memory Access: Memory read/write operation
81c049ac:	32683340 	andi	t0,s3,0x3340                                     ; Bitwise isolation/masking operation
81c049b0:	1a036c00 	0x1a036c00
81c049b4:	e1451240 	sc	a1,4672(t2)
81c049b8:	ea0c9707 	swc2	$12,-26873(s0)                                     ; Memory Access: Memory read/write operation
81c049bc:	9106e149 	lbu	a2,-7863(t0)                                     ; Memory Access: Memory read/write operation
81c049c0:	ef009005 	swc3	$0,-28667(t8)                                     ; Memory Access: Memory read/write operation
81c049c4:	65006304 	daddiu	zero,t0,25348
81c049c8:	d00463fd 	lld	a0,25597(zero)
81c049cc:	1a036205 	0x1a036205
81c049d0:	6c000d0d 	ldr	zero,3341(zero)
81c049d4:	22116800 	addi	s1,s0,26624                                     ; Math operation on registers
81c049d8:	10471a03 	b	v0,a3,0x81c0b1e8                                       ; Branch: evaluate condition and jump (error state fallback/looping)
81c049dc:	6b806c14 	ldl	zero,27668(gp)
81c049e0:	6802eb4c 	ldl	v0,-5300(zero)
81c049e4:	1a032b07 	0x1a032b07
81c049e8:	6c101025 	ldr	s0,4133(zero)
81c049ec:	b2066c01 	sdl	a2,27649(s0)
81c049f0:	6801c280 	ldl	at,-15744(zero)
81c049f4:	108d1a03 	b	a0,t5,0x81c0b204                                       ; Branch: evaluate condition and jump (error state fallback/looping)
81c049f8:	97056c00 	lhu	a1,27648(t8)                                     ; Memory Access: Memory read/write operation
81c049fc:	90046750 	lbu	a0,26448(zero)                                     ; Memory Access: Memory read/write operation
81c04a00:	6303ef00 	daddi	v1,t8,-4352
81c04a04:	81c0599b 	lb	zero,22939(t6)                                     ; Memory Access: Memory read/write operation
81c04a08:	63fd444f 	daddi	sp,ra,17487
81c04a0c:	d0045a0a 	lld	a0,23050(zero)
81c04a10:	67046205 	daddiu	a0,t8,25093
81c04a14:	0c04601f 	j	0x8011807c                                       ; Jump or subroutine call
81c04a18:	e4d53644 	swc1	$f21,13892(a2)                                     ; Memory Access: Memory read/write operation
81c04a1c:	e44d8d40 	swc1	$f13,-29376(v0)                                     ; Memory Access: Memory read/write operation
81c04a20:	6500eb00 	daddiu	zero,t0,-5376
81c04a24:	00390039 	0x390039
81c04a28:	00150015 	0x150015
81c04a2c:	001f0019 	multu	zero,ra
81c04a30:	002b0025 	or	zero,at,t3                                      ; Bitwise isolation/masking operation
81c04a34:	003d003d 	0x3d003d
81c04a38:	10146a80 	b	zero,s4,0x81c1f43c                                       ; Branch: evaluate condition and jump (error state fallback/looping)
81c04a3c:	4a016aff 	c2	0x16aff
81c04a40:	f1801011 	scd	zero,4113(t4)
81c04a44:	100e6a00 	b	zero,t6,0x81c1f248                                       ; Branch: evaluate condition and jump (error state fallback/looping)
81c04a48:	6a00f280 	ldl	zero,-3456(s0)
81c04a4c:	f300100b 	scd	zero,4107(t8)
81c04a50:	10086a00 	b	zero,t0,0x81c1f254                                       ; Branch: evaluate condition and jump (error state fallback/looping)
81c04a54:	1a03b410 	0x1a03b410
81c04a58:	65000683 	daddiu	zero,t0,1667
81c04a5c:	10026a00 	b	zero,v0,0x81c1f260                                       ; Branch: evaluate condition and jump (error state fallback/looping)
81c04a60:	6a00f380 	ldl	zero,-3200(s0)
81c04a64:	abe0b30d 	swl	zero,-19699(ra)                                     ; Memory Access: Memory read/write operation
81c04a68:	6d01f380 	ldr	at,-3200(t0)
81c04a6c:	edecedab 	swc3	$12,-4693(t7)                                     ; Memory Access: Memory read/write operation
81c04a70:	6e00f002 	ldr	zero,-4094(s0)
81c04a74:	ed4dedcd 	swc3	$13,-4659(t2)                                     ; Memory Access: Memory read/write operation
81c04a78:	6c1ff7ff 	ldr	ra,-2049(zero)
81c04a7c:	cba0ed8c 	lwc2	$0,-4724(sp)                                     ; Memory Access: Memory read/write operation
81c04a80:	03cd1a03 	0x3cd1a03
81c04a84:	b7066c13 	sdr	a2,27667(t8)
81c04a88:	9705df01 	lhu	a1,-8447(t8)                                     ; Memory Access: Memory read/write operation
81c04a8c:	ef009004 	swc3	$0,-28668(t8)                                     ; Memory Access: Memory read/write operation
81c04a90:	65006303 	daddiu	zero,t0,25347
81c04a94:	81c058f0 	lb	zero,22768(t6)                                     ; Memory Access: Memory read/write operation
81c04a98:	81c059f2 	lb	zero,23026(t6)                                     ; Memory Access: Memory read/write operation
81c04a9c:	81c059c8 	lb	zero,22984(t6)                                     ; Memory Access: Memory read/write operation
81c04aa0:	d10663fc 	lld	a2,25596(t0)
81c04aa4:	d0056207 	lld	a1,25095(zero)
81c04aa8:	1a03b263 	0x1a03b263
81c04aac:	9a0003c2 	lwr	zero,962(s0)                                     ; Memory Access: Memory read/write operation
81c04ab0:	b2626722 	sdl	v0,26402(s3)
81c04ab4:	6b019a80 	ldl	at,-25984(t8)
81c04ab8:	2b0ceb8e 	slti	t4,t8,-5234
81c04abc:	9ea0b660 	lwu	zero,-18848(s5)                                     ; Memory Access: Memory read/write operation
81c04ac0:	e1a7b460 	sc	a3,-19360(t5)
81c04ac4:	f0a0ec23 	scd	zero,-5085(a1)
81c04ac8:	b75f600e 	sdr	ra,24590(k0)
81c04acc:	6b02cf60 	ldl	v0,-12448(t8)
81c04ad0:	10a9da60 	b	a1,t1,0x81bfb454                                       ; Branch: evaluate condition and jump (error state fallback/looping)
81c04ad4:	61187403 	daddi	t8,t0,29699
81c04ad8:	9a80b25c 	lwr	zero,-19876(s4)                                     ; Memory Access: Memory read/write operation
81c04adc:	60025c02 	daddi	v0,zero,23554
81c04ae0:	daa06d02 	ldc2	$0,27906(s5)                                     ; Memory Access: Memory read/write operation
81c04ae4:	b258b65a 	sdl	t8,-18854(s2)
81c04ae8:	aaa0ae80 	swl	zero,-20864(s5)                                     ; Memory Access: Memory read/write operation
81c04aec:	9fc0b757 	lwu	zero,-18601(s8)                                     ; Memory Access: Memory read/write operation
81c04af0:	ebdbe4ad 	swc2	$27,-6995(s8)                                     ; Memory Access: Memory read/write operation
81c04af4:	e8e52e01 	swc2	$5,11777(a3)                                     ; Memory Access: Memory read/write operation
81c04af8:	ea106c01 	swc2	$16,27649(s0)                                     ; Memory Access: Memory read/write operation
81c04afc:	22016500 	addi	at,s0,25856                                     ; Math operation on registers
81c04b00:	1a036c00 	0x1a036c00
81c04b04:	650011fa 	daddiu	zero,t0,4602
81c04b08:	af60b74f 	sw	zero,-18609(k1)                                     ; Memory Access: Memory read/write operation
81c04b0c:	f0805b0a 	scd	zero,23306(a0)
81c04b10:	b350610a 	sdl	s0,24842(k0)
81c04b14:	6a00b450 	ldl	zero,-19376(s0)
81c04b18:	4b02aba0 	c2	0x102aba0
81c04b1c:	e2a9eb8a 	sc	t1,-5238(s5)
81c04b20:	6c0a61fb 	ldr	t2,25083(zero)
81c04b24:	2c01ea9b 	sltiu	at,zero,-5477
81c04b28:	b444e8e5 	sdr	a0,-5915(v0)
81c04b2c:	73029c60 	0x73029c60
81c04b30:	6500ea12 	daddiu	zero,t0,-5614
81c04b34:	5b036011 	0x5b036011
81c04b38:	23046002 	addi	a0,t8,24578                                     ; Math operation on registers
81c04b3c:	5b05106a 	0x5b05106a
81c04b40:	10426068 	b	v0,v0,0x81c1cce4                                       ; Branch: evaluate condition and jump (error state fallback/looping)
81c04b44:	9d60b545 	lwu	zero,-19131(t3)                                     ; Memory Access: Memory read/write operation
81c04b48:	f10042e7 	scd	zero,17127(t0)
81c04b4c:	4f2babd4 	c3	0x12babd4
81c04b50:	605fefc3 	daddi	ra,v0,-4157
81c04b54:	dcc06e02 	ld	zero,28162(a2)
81c04b58:	b33b6c00 	sdl	k1,27648(t9)
81c04b5c:	cb80b73f 	lwc2	$0,-18625(gp)                                     ; Memory Access: Memory read/write operation
81c04b60:	f1009f80 	scd	zero,-24704(t0)
81c04b64:	ea63ac74 	swc2	$3,-21388(s3)                                     ; Memory Access: Memory read/write operation
81c04b68:	b0346105 	sdl	s4,24837(at)
81c04b6c:	d8406a00 	ldc2	$0,27136(v0)                                     ; Memory Access: Memory read/write operation
81c04b70:	104f6807 	b	v0,t7,0x81c1eb90                                       ; Branch: evaluate condition and jump (error state fallback/looping)
81c04b74:	4d0342a7 	b	0x81c15614                                       ; Branch: evaluate condition and jump (error state fallback/looping)
81c04b78:	6108ed63 	daddi	t0,t0,-4765
81c04b7c:	b439b338 	sdr	t9,-19656(at)
81c04b80:	b62e6f04 	sdr	t6,28420(s1)
81c04b84:	dee0dc60 	ld	zero,-9120(s7)
81c04b88:	10116c03 	b	zero,s1,0x81c1fb98                                       ; Branch: evaluate condition and jump (error state fallback/looping)
81c04b8c:	ea634a32 	swc2	$3,18994(s3)                                     ; Memory Access: Memory read/write operation
81c04b90:	b634b52a 	sdr	s4,-19158(s1)
81c04b94:	b7346106 	sdr	s4,24838(t9)
81c04b98:	dee06a04 	ld	zero,27140(s7)
81c04b9c:	6c05dd40 	ldr	a1,-8896(zero)
81c04ba0:	b3321006 	sdl	s2,4102(t9)
81c04ba4:	6e04de60 	ldr	a0,-8608(s0)
81c04ba8:	f120ddc0 	scd	zero,-8768(t1)
81c04bac:	1a039c84 	0x1a039c84
81c04bb0:	65001282 	daddiu	zero,t0,4738
81c04bb4:	b52e6c00 	sdr	t6,27648(t1)
81c04bb8:	1a03c580 	0x1a03c580
81c04bbc:	6c0011fa 	ldr	zero,4602(zero)
81c04bc0:	60277007 	daddi	a3,at,28679
81c04bc4:	10256804 	b	at,a1,0x81c1ebd8                                       ; Branch: evaluate condition and jump (error state fallback/looping)
81c04bc8:	9bc0b324 	lwr	zero,-19676(s8)                                     ; Memory Access: Memory read/write operation
81c04bcc:	aef4f100 	sw	s4,-3840(s7)                                     ; Memory Access: Memory read/write operation
81c04bd0:	611ceae3 	daddi	gp,t0,-5405
81c04bd4:	a2a0b226 	sb	zero,-19930(s5)                                     ; Memory Access: Memory read/write operation
81c04bd8:	b7262d04 	sdr	a2,11524(t9)
81c04bdc:	df206c01 	ld	zero,27649(t9)
81c04be0:	b625c280 	sdr	a1,-15744(s1)
81c04be4:	2a07a640 	slti	a3,s0,-22976
81c04be8:	9ae0b222 	lwr	zero,-19934(s7)                                     ; Memory Access: Memory read/write operation
81c04bec:	9ca0b41d 	lwu	zero,-19427(a1)                                     ; Memory Access: Memory read/write operation
81c04bf0:	eba3e1ef 	swc2	$3,-7697(sp)                                     ; Memory Access: Memory read/write operation
81c04bf4:	b414610b 	sdr	s4,24843(zero)
81c04bf8:	6f006e01 	ldr	zero,28161(t8)
81c04bfc:	b50fb310 	sdr	t7,-19696(t0)
81c04c00:	db20cce0 	ldc2	$0,-13088(t9)                                     ; Memory Access: Memory read/write operation
81c04c04:	1a03ddc0 	0x1a03ddc0
81c04c08:	678611fa 	daddiu	a2,gp,4602
81c04c0c:	b21a6e00 	sdl	k0,28160(s0)
81c04c10:	b412c2c0 	sdr	s2,-15680(zero)
81c04c14:	9c60b208 	lwu	zero,-19960(v1)                                     ; Memory Access: Memory read/write operation
81c04c18:	f1009ae6 	scd	zero,-25882(t0)
81c04c1c:	e1e79bb8 	sc	a3,-25672(t7)
81c04c20:	6001ed23 	daddi	at,zero,-4829
81c04c24:	97076807 	lhu	a3,26631(t8)                                     ; Memory Access: Memory read/write operation
81c04c28:	91066750 	lbu	a2,26448(t0)                                     ; Memory Access: Memory read/write operation
81c04c2c:	ef009005 	swc3	$0,-28667(t8)                                     ; Memory Access: Memory read/write operation
81c04c30:	65006304 	daddiu	zero,t0,25348
81c04c34:	81c059c8 	lb	zero,22984(t6)                                     ; Memory Access: Memory read/write operation
81c04c38:	81c05cf4 	lb	zero,23796(t6)                                     ; Memory Access: Memory read/write operation
81c04c3c:	81c05d08 	lb	zero,23816(t6)                                     ; Memory Access: Memory read/write operation
81c04c40:	000effff 	dsra32	ra,t6,0x1f
81c04c44:	81c05cfc 	lb	zero,23804(t6)                                     ; Memory Access: Memory read/write operation
81c04c48:	81c059f8 	lb	zero,23032(t6)                                     ; Memory Access: Memory read/write operation
81c04c4c:	81c05cfa 	lb	zero,23802(t6)                                     ; Memory Access: Memory read/write operation
81c04c50:	81c05d28 	lb	zero,23848(t6)                                     ; Memory Access: Memory read/write operation
81c04c54:	81c05d3c 	lb	zero,23868(t6)                                     ; Memory Access: Memory read/write operation
81c04c58:	81c05ac0 	lb	zero,23232(t6)                                     ; Memory Access: Memory read/write operation
81c04c5c:	002d0000 	0x2d0000
81c04c60:	81c05d0c 	lb	zero,23820(t6)                                     ; Memory Access: Memory read/write operation
81c04c64:	005a0000 	0x5a0000
81c04c68:	00870000 	0x870000
81c04c6c:	81c05cff 	lb	zero,23807(t6)                                     ; Memory Access: Memory read/write operation
81c04c70:	81c05d10 	lb	zero,23824(t6)                                     ; Memory Access: Memory read/write operation
81c04c74:	81c05cfe 	lb	zero,23806(t6)                                     ; Memory Access: Memory read/write operation
81c04c78:	d00463fd 	lld	a0,25597(zero)
81c04c7c:	b0156205 	sdl	s5,25093(zero)
81c04c80:	f1009840 	scd	zero,-26560(t0)
81c04c84:	1a039a90 	0x1a039a90
81c04c88:	65000674 	daddiu	zero,t0,1652
81c04c8c:	721ff7ff 	0x721ff7ff
81c04c90:	f7ff6103 	sdc1	$f31,24835(ra)                                     ; Memory Access: Memory read/write operation
81c04c94:	10186a1f 	b	zero,t8,0x81c1f514                                       ; Branch: evaluate condition and jump (error state fallback/looping)
81c04c98:	f020b40f 	scd	zero,-19441(at)
81c04c9c:	230ea460 	addi	t6,t8,-23456                                     ; Math operation on registers
81c04ca0:	9d60b50e 	lwu	zero,-19186(t3)                                     ; Memory Access: Memory read/write operation
81c04ca4:	600a7304 	daddi	t2,zero,29444
81c04ca8:	60087303 	daddi	t0,zero,29443
81c04cac:	ea786b03 	swc2	$24,27395(s3)                                     ; Memory Access: Memory read/write operation
81c04cb0:	f1009840 	scd	zero,-26560(t0)
81c04cb4:	ee12aafe 	swc3	$18,-21762(s0)                                     ; Memory Access: Memory read/write operation
81c04cb8:	1003e6e9 	b	zero,v1,0x81bfe860                                       ; Branch: evaluate condition and jump (error state fallback/looping)
81c04cbc:	ea186803 	swc2	$24,26627(s0)                                     ; Memory Access: Memory read/write operation
81c04cc0:	f7ffea12 	sdc1	$f31,-5614(ra)                                     ; Memory Access: Memory read/write operation
81c04cc4:	ea8c6c1f 	swc2	$12,27679(s4)                                     ; Memory Access: Memory read/write operation
81c04cc8:	90049705 	lbu	a0,-26875(zero)                                     ; Memory Access: Memory read/write operation
81c04ccc:	6303ef00 	daddi	v1,t8,-4352
81c04cd0:	81c05ac0 	lb	zero,23232(t6)                                     ; Memory Access: Memory read/write operation
81c04cd4:	81c059c8 	lb	zero,22984(t6)                                     ; Memory Access: Memory read/write operation
81c04cd8:	81c05cf4 	lb	zero,23796(t6)                                     ; Memory Access: Memory read/write operation
81c04cdc:	d10663fc 	lld	a2,25596(t0)
81c04ce0:	6207d005 	daddi	a3,s0,-12283
81c04ce4:	131e1a03 	b	t8,s8,0x81c0b4f4                                       ; Branch: evaluate condition and jump (error state fallback/looping)
81c04ce8:	b3196724 	sdl	t9,26404(t8)
81c04cec:	cb466702 	lwc2	$6,26370(k0)                                     ; Memory Access: Memory read/write operation
81c04cf0:	72049b40 	0x72049b40
81c04cf4:	b517611c 	sdr	s7,24860(t0)
81c04cf8:	4cfd9d80 	0x4cfd9d80
81c04cfc:	60175c02 	daddi	s7,zero,23554
81c04d00:	701ff7ff 	0x701ff7ff
81c04d04:	b714601c 	sdr	s4,24604(t8)
81c04d08:	6c5f9fc0 	ldr	ra,-24640(v0)
81c04d0c:	aee2f120 	sw	v0,-3808(s7)                                     ; Memory Access: Memory read/write operation
81c04d10:	e0f76a64 	sc	s7,27236(a3)
81c04d14:	f7ffed98 	sdc1	$f31,-4712(ra)                                     ; Memory Access: Memory read/write operation
81c04d18:	eb126e1f 	swc2	$18,28191(t8)                                     ; Memory Access: Memory read/write operation
81c04d1c:	65006500 	daddiu	zero,t0,25856
81c04d20:	2a01eb5a 	slti	at,s0,-5286
81c04d24:	e812e8e5 	swc2	$18,-5915(zero)                                     ; Memory Access: Memory read/write operation
81c04d28:	e0e1e8cc 	sc	at,-5940(a3)
81c04d2c:	f7ffe8cc 	sdc1	$f31,-5940(ra)                                     ; Memory Access: Memory read/write operation
81c04d30:	6005701f 	daddi	a1,zero,28703
81c04d34:	1a032104 	0x1a032104
81c04d38:	679011eb 	daddiu	s0,gp,4587
81c04d3c:	9707c140 	lhu	a3,-16064(t8)                                     ; Memory Access: Memory read/write operation
81c04d40:	91066750 	lbu	a2,26448(t0)                                     ; Memory Access: Memory read/write operation
81c04d44:	ef009005 	swc3	$0,-28667(t8)                                     ; Memory Access: Memory read/write operation
81c04d48:	65006304 	daddiu	zero,t0,25348
81c04d4c:	81c059c8 	lb	zero,22984(t6)                                     ; Memory Access: Memory read/write operation
81c04d50:	81c05cf4 	lb	zero,23796(t6)                                     ; Memory Access: Memory read/write operation
81c04d54:	81c05ac0 	lb	zero,23232(t6)                                     ; Memory Access: Memory read/write operation
81c04d58:	63fdb30c 	daddi	sp,ra,-19700
81c04d5c:	62059b40 	daddi	a1,s0,-25792
81c04d60:	9a88f120 	lwr	t0,-3808(s4)                                     ; Memory Access: Memory read/write operation
81c04d64:	06741a03 	0x6741a03
81c04d68:	f7ff6500 	sdc1	$f31,25856(ra)                                     ; Memory Access: Memory read/write operation
81c04d6c:	6103721f 	daddi	v1,t0,29215
81c04d70:	6a1ff7ff 	ldl	ra,-2049(s0)
81c04d74:	6d061006 	ldr	a2,4102(t0)
81c04d78:	f7ffeab8 	sdc1	$f31,-5448(ra)                                     ; Memory Access: Memory read/write operation
81c04d7c:	ea126c1f 	swc2	$18,27679(s0)                                     ; Memory Access: Memory read/write operation
81c04d80:	9705ea8c 	lhu	a1,-5492(t8)                                     ; Memory Access: Memory read/write operation
81c04d84:	6303ef00 	daddi	v1,t8,-4352
81c04d88:	81c05ac0 	lb	zero,23232(t6)                                     ; Memory Access: Memory read/write operation
81c04d8c:	620b63fa 	daddi	t3,s0,25594
81c04d90:	d009d10a 	lld	t1,-12022(zero)
81c04d94:	9b00b38f 	lwr	zero,-19569(t8)                                     ; Memory Access: Memory read/write operation
81c04d98:	2415f100 	li	s5,-3840                                      ; Load Immediate pseudo-instruction
81c04d9c:	e98e6901 	swc2	$14,26881(t4)                                     ; Memory Access: Memory read/write operation
81c04da0:	1a032937 	0x1a032937
81c04da4:	d30603c2 	lld	a2,962(t8)
81c04da8:	f7ff9606 	sdc1	$f31,-27130(ra)                                     ; Memory Access: Memory read/write operation
81c04dac:	b58a6b1f 	sdr	t2,27423(t4)
81c04db0:	dd60de46 	ld	zero,-8634(t3)
81c04db4:	b78ab289 	sdr	t2,-19831(gp)
81c04db8:	6b00b48a 	ldl	zero,-19318(t8)
81c04dbc:	ca20c460 	lwc2	$0,-15264(s1)                                     ; Memory Access: Memory read/write operation
81c04dc0:	6a04cf20 	ldl	a0,-12512(s0)
81c04dc4:	b389b788 	sdl	t1,-18552(gp)
81c04dc8:	6e01b589 	ldr	at,-19063(s0)
81c04dcc:	a340df40 	sb	zero,-8384(k0)                                     ; Memory Access: Memory read/write operation
81c04dd0:	b488c5c0 	sdr	t0,-14912(a0)
81c04dd4:	cd20b588 	lwc3	$0,-19064(t1)                                     ; Memory Access: Memory read/write operation
81c04dd8:	2207dc20 	addi	a3,s0,-9184                                     ; Math operation on registers
81c04ddc:	9f20b787 	lwu	zero,-18553(t9)                                     ; Memory Access: Memory read/write operation
81c04de0:	9988f120 	lwr	t0,-3808(t4)                                     ; Memory Access: Memory read/write operation
81c04de4:	06721a03 	b	s3,0x81c0b5f4                                       ; Branch: evaluate condition and jump (error state fallback/looping)
81c04de8:	1a036d07 	0x1a036d07
81c04dec:	6c011282 	ldr	at,4738(zero)
81c04df0:	1a036d01 	0x1a036d01
81c04df4:	6c000cd5 	ldr	zero,3285(zero)
81c04df8:	11fa1a03 	b	t7,k0,0x81c0b608                                       ; Branch: evaluate condition and jump (error state fallback/looping)
81c04dfc:	b4806c00 	sdr	zero,27648(a0)
81c04e00:	066f1a03 	0x66f1a03
81c04e04:	6a006d00 	ldl	zero,27904(s0)
81c04e08:	f004d204 	scd	a0,-11772(zero)
81c04e0c:	10c46c00 	b	a2,a0,0x81c1fe10                                       ; Branch: evaluate condition and jump (error state fallback/looping)
81c04e10:	f0c07402 	scd	zero,29698(a2)
81c04e14:	1a036106 	0x1a036106
81c04e18:	6500131e 	daddiu	zero,t0,4894
81c04e1c:	721ff7ff 	0x721ff7ff
81c04e20:	b46e6105 	sdr	t6,24837(v1)
81c04e24:	4a01ac40 	c2	0x1ac40
81c04e28:	1012cc40 	b	zero,s2,0x81bf7f2c                                       ; Branch: evaluate condition and jump (error state fallback/looping)
81c04e2c:	ab20b36c 	swl	zero,-19604(t9)                                     ; Memory Access: Memory read/write operation
81c04e30:	e99b6c0a 	swc2	$27,27658(t4)                                     ; Memory Access: Memory read/write operation
81c04e34:	e8e52c01 	swc2	$5,11265(a3)                                     ; Memory Access: Memory read/write operation
81c04e38:	ee10b772 	swc3	$16,-18574(s0)                                     ; Memory Access: Memory read/write operation
81c04e3c:	e7b935c4 	swc1	$f25,13764(sp)                                     ; Memory Access: Memory read/write operation
81c04e40:	f7ffce40 	sdc1	$f31,-12736(ra)                                     ; Memory Access: Memory read/write operation
81c04e44:	41c16d1f 	0x41c16d1f
81c04e48:	cbc0eeac 	lwc2	$0,-4436(s8)                                     ; Memory Access: Memory read/write operation
81c04e4c:	cb802e01 	lwc2	$0,11777(gp)                                     ; Memory Access: Memory read/write operation
81c04e50:	9940b161 	lwr	zero,-20127(t2)                                     ; Memory Access: Memory read/write operation
81c04e54:	721ff7ff 	0x721ff7ff
81c04e58:	b35e6103 	sdl	s8,24835(k0)
81c04e5c:	100dab46 	b	zero,t5,0x81befb78                                       ; Branch: evaluate condition and jump (error state fallback/looping)
81c04e60:	5a08f541 	0x5a08f541
81c04e64:	b25b600b 	sdl	k1,24587(s2)
81c04e68:	f6c1aa86 	sdc1	$f1,-21882(s6)                                     ; Memory Access: Memory read/write operation
81c04e6c:	61065c19 	daddi	a2,t0,23577
81c04e70:	122a1a03 	b	s1,t2,0x81c0b680                                       ; Branch: evaluate condition and jump (error state fallback/looping)
81c04e74:	f6c16500 	sdc1	$f1,25856(s6)                                     ; Memory Access: Memory read/write operation
81c04e78:	d9406a18 	ldc2	$0,27160(t2)                                     ; Memory Access: Memory read/write operation
81c04e7c:	12721a03 	b	s3,s2,0x81c0b68c                                       ; Branch: evaluate condition and jump (error state fallback/looping)
81c04e80:	67226500 	daddiu	v0,t9,25856
81c04e84:	ea2e6a01 	swc2	$14,27137(s1)                                     ; Memory Access: Memory read/write operation
81c04e88:	b1582a1c 	sdl	t8,10780(t2)
81c04e8c:	b556a100 	sdr	s6,-24320(t2)
81c04e90:	2007dd40 	addi	a3,zero,-8896                                     ; Math operation on registers
81c04e94:	9ee0b659 	lwu	zero,-18855(s7)                                     ; Memory Access: Memory read/write operation
81c04e98:	9f88f120 	lwu	t0,-3808(gp)                                     ; Memory Access: Memory read/write operation
81c04e9c:	06731a03 	b	s3,0x81c0b6ac                                       ; Branch: evaluate condition and jump (error state fallback/looping)
81c04ea0:	1a036500 	0x1a036500
81c04ea4:	6c011282 	ldr	at,4738(zero)
81c04ea8:	11fa1a03 	b	t7,k0,0x81c0b6b8                                       ; Branch: evaluate condition and jump (error state fallback/looping)
81c04eac:	6c006c00 	ldr	zero,27648(zero)
81c04eb0:	0cd51a03 	j	0x8354680c                                       ; Jump or subroutine call
81c04eb4:	b45267a4 	sdr	s2,26532(v0)
81c04eb8:	066f1a03 	0x66f1a03
81c04ebc:	68016d00 	ldl	at,27904(zero)
81c04ec0:	21621070 	addi	v0,t3,4208                                     ; Math operation on registers
81c04ec4:	60025802 	daddi	v0,zero,22530
81c04ec8:	105e6802 	b	v0,s8,0x81c1eed4                                       ; Branch: evaluate condition and jump (error state fallback/looping)
81c04ecc:	a460b447 	sh	zero,-19385(v1)                                     ; Memory Access: Memory read/write operation
81c04ed0:	1a032348 	0x1a032348
81c04ed4:	65001356 	daddiu	zero,t0,4950
81c04ed8:	721ff7ff 	0x721ff7ff
81c04edc:	b3466055 	sdl	a2,24661(k0)
81c04ee0:	6c05aba0 	ldr	a1,-21600(zero)
81c04ee4:	2c01ed9b 	sltiu	at,zero,-4709
81c04ee8:	b747e8e5 	sdr	a3,-5915(k0)
81c04eec:	36c4ee10 	ori	a0,s6,0xee10                                      ; Bitwise isolation/masking operation
81c04ef0:	ce40e7d9 	lwc3	$0,-6183(s2)                                     ; Memory Access: Memory read/write operation
81c04ef4:	f7ff4541 	sdc1	$f31,17729(ra)                                     ; Memory Access: Memory read/write operation
81c04ef8:	eaac6d1f 	swc2	$12,27935(s5)                                     ; Memory Access: Memory read/write operation
81c04efc:	2a01cb40 	slti	at,s0,-13504
81c04f00:	b43dcb80 	sdr	sp,-13440(at)
81c04f04:	5b05ac60 	0x5b05ac60
81c04f08:	b73f613f 	sdr	ra,24895(t9)
81c04f0c:	af41afc0 	sw	at,-20544(k0)                                     ; Memory Access: Memory read/write operation
81c04f10:	e64dafa2 	swc1	$f13,-20574(s2)                                     ; Memory Access: Memory read/write operation
81c04f14:	e3b9af83 	sc	t9,-20605(sp)
81c04f18:	e695af44 	swc1	$f21,-20668(s4)                                     ; Memory Access: Memory read/write operation
81c04f1c:	6c05e54d 	ldr	a1,-6835(zero)
81c04f20:	2c01eb9b 	sltiu	at,zero,-5221
81c04f24:	b635e8e5 	sdr	s5,-5915(s1)
81c04f28:	f1209ee0 	scd	zero,-24864(t1)
81c04f2c:	ea12afac 	swc2	$18,-20564(s0)                                     ; Memory Access: Memory read/write operation
81c04f30:	eaa34ae2 	swc2	$3,19170(s5)                                     ; Memory Access: Memory read/write operation
81c04f34:	613fb22f 	daddi	ra,t1,-19921
81c04f38:	6f011042 	ldr	at,4162(t8)
81c04f3c:	1011dae0 	b	zero,s1,0x81bfbac0                                       ; Branch: evaluate condition and jump (error state fallback/looping)
81c04f40:	6b006e02 	ldl	zero,28162(t8)
81c04f44:	dac0b526 	ldc2	$0,-19162(s6)                                     ; Memory Access: Memory read/write operation
81c04f48:	03c21a03 	0x3c21a03
81c04f4c:	6801cd60 	ldl	at,-12960(zero)
81c04f50:	b125b42e 	sdl	a1,-19410(t1)
81c04f54:	d900dc40 	ldc2	$0,-9152(t0)                                     ; Memory Access: Memory read/write operation
81c04f58:	11fa1a03 	b	t7,k0,0x81c0b768                                       ; Branch: evaluate condition and jump (error state fallback/looping)
81c04f5c:	680b6790 	ldl	t3,26512(zero)
81c04f60:	6a021013 	ldl	v0,4115(s0)
81c04f64:	2809e84e 	slti	t1,zero,-6066
81c04f68:	9ca0b424 	lwu	zero,-19420(a1)                                     ; Memory Access: Memory read/write operation
81c04f6c:	9d84f120 	lwu	a0,-3808(t4)                                     ; Memory Access: Memory read/write operation
81c04f70:	12821a03 	b	s4,v0,0x81c0b780                                       ; Branch: evaluate condition and jump (error state fallback/looping)
81c04f74:	b71a6500 	sdr	k0,25856(t8)
81c04f78:	1a03cf00 	0x1a03cf00
81c04f7c:	679112a8 	daddiu	s1,gp,4776
81c04f80:	67027202 	daddiu	v0,t8,29186
81c04f84:	68046101 	ldl	a0,24833(zero)
81c04f88:	1a03b41d 	0x1a03b41d
81c04f8c:	6d00066f 	ldr	zero,1647(t0)
81c04f90:	d2046a00 	lld	a0,27136(s0)
81c04f94:	6c00f010 	ldr	zero,-4080(zero)
81c04f98:	6e02b519 	ldr	v0,-19175(s0)
81c04f9c:	066e1a03 	tnei	s3,6659
81c04fa0:	b20c67e2 	sdl	t4,26594(s0)
81c04fa4:	e90e9a20 	swc2	$14,-26080(t0)                                     ; Memory Access: Memory read/write operation
81c04fa8:	da00210e 	ldc2	$0,8462(s0)                                     ; Memory Access: Memory read/write operation
81c04fac:	220b9a42 	addi	t3,s0,-26046                                     ; Math operation on registers
81c04fb0:	6790ea40 	daddiu	s0,gp,-5568
81c04fb4:	9a601008 	lwr	zero,4104(s3)                                     ; Memory Access: Memory read/write operation
81c04fb8:	61bf7301 	daddi	ra,t5,29441
81c04fbc:	9ac017d2 	lwr	zero,6098(s6)                                     ; Memory Access: Memory read/write operation
81c04fc0:	61be7602 	daddi	s8,t5,30210
81c04fc4:	970b17e1 	lhu	t3,6113(t8)                                     ; Memory Access: Memory read/write operation
81c04fc8:	9009910a 	lbu	t1,-28406(zero)                                     ; Memory Access: Memory read/write operation
81c04fcc:	6306ef00 	daddi	a2,t8,-4352
81c04fd0:	81c059c8 	lb	zero,22984(t6)                                     ; Memory Access: Memory read/write operation
81c04fd4:	81c059f4 	lb	zero,23028(t6)                                     ; Memory Access: Memory read/write operation
81c04fd8:	81c05cfa 	lb	zero,23802(t6)                                     ; Memory Access: Memory read/write operation
81c04fdc:	81c05cfc 	lb	zero,23804(t6)                                     ; Memory Access: Memory read/write operation
81c04fe0:	81c05cff 	lb	zero,23807(t6)                                     ; Memory Access: Memory read/write operation
81c04fe4:	81c05cf4 	lb	zero,23796(t6)                                     ; Memory Access: Memory read/write operation
81c04fe8:	81c05cf0 	lb	zero,23792(t6)                                     ; Memory Access: Memory read/write operation
81c04fec:	81c05cfe 	lb	zero,23806(t6)                                     ; Memory Access: Memory read/write operation
81c04ff0:	81c05d04 	lb	zero,23812(t6)                                     ; Memory Access: Memory read/write operation
81c04ff4:	81c05d00 	lb	zero,23808(t6)                                     ; Memory Access: Memory read/write operation
81c04ff8:	81c05ac0 	lb	zero,23232(t6)                                     ; Memory Access: Memory read/write operation
81c04ffc:	81c04d8d 	lb	zero,19853(t6)                                     ; Memory Access: Memory read/write operation
81c05000:	81c05d28 	lb	zero,23848(t6)                                     ; Memory Access: Memory read/write operation
81c05004:	81c05d1c 	lb	zero,23836(t6)                                     ; Memory Access: Memory read/write operation
81c05008:	81c05d08 	lb	zero,23816(t6)                                     ; Memory Access: Memory read/write operation
81c0500c:	63fd6aff 	daddi	sp,ra,27391
81c05010:	6205ea8c 	daddi	a1,s0,-5492
81c05014:	22016c00 	addi	at,s0,27648                                     ; Math operation on registers
81c05018:	1a036c01 	0x1a036c01
81c0501c:	65001363 	daddiu	zero,t0,4963
81c05020:	ef009705 	swc3	$0,-26875(t8)                                     ; Memory Access: Memory read/write operation
81c05024:	65006303 	daddiu	zero,t0,25347
81c05028:	d00563fc 	lld	a1,25596(zero)
81c0502c:	9860b013 	lwr	zero,-20461(v1)                                     ; Memory Access: Memory read/write operation
81c05030:	d1066207 	lld	a2,25095(t0)
81c05034:	b6129b20 	sdr	s2,-25824(s0)
81c05038:	f300ae80 	scd	zero,-20864(t8)
81c0503c:	edab6d01 	swc3	$11,27905(t5)                                     ; Memory Access: Memory read/write operation
81c05040:	6a00f300 	ldl	zero,-3328(s0)
81c05044:	ed4ded8c 	swc3	$13,-4724(t2)                                     ; Memory Access: Memory read/write operation
81c05048:	6f1ff7ff 	ldr	ra,-2049(t8)
81c0504c:	cea0edec 	lwc3	$0,-4628(t9)                                 ; Hardware Register Access: lw operation targeting Hardware Signature Desc Pointer at 0x81C00274
81c05050:	03cd1a03 	0x3cd1a03
81c05054:	b40b6c12 	sdr	t3,27666(zero)
81c05058:	f7f7aca0 	sdc1	$f23,-21344(ra)                                     ; Memory Access: Memory read/write operation
81c0505c:	ed6c6b1f 	swc3	$12,27423(t3)                                     ; Memory Access: Memory read/write operation
81c05060:	1a03cca0 	0x1a03cca0
81c05064:	6c1603cd 	ldr	s6,973(zero)
81c05068:	da209840 	ldc2	$0,-26560(s1)                                     ; Memory Access: Memory read/write operation
81c0506c:	91069707 	lbu	a2,-26873(t0)                                     ; Memory Access: Memory read/write operation
81c05070:	ef009005 	swc3	$0,-28667(t8)                                     ; Memory Access: Memory read/write operation
81c05074:	65006304 	daddiu	zero,t0,25348
81c05078:	81c05574 	lb	zero,21876(t6)                                     ; Memory Access: Memory read/write operation
81c0507c:	81c059ee 	lb	zero,23022(t6)                                     ; Memory Access: Memory read/write operation
81c05080:	81c059f0 	lb	zero,23024(t6)                                     ; Memory Access: Memory read/write operation
81c05084:	b36b63fb 	sdl	t3,25595(k1)
81c05088:	6209b26b 	daddi	t1,s0,-19861
81c0508c:	d007d108 	lld	a3,-12024(zero)
81c05090:	da78b46a 	ldc2	$24,-19350(s3)                                     ; Memory Access: Memory read/write operation
81c05094:	6a01b36a 	ldl	at,-19606(s0)
81c05098:	4b01c340 	c2	0x101c340
81c0509c:	61fbeb8a 	daddi	k1,t7,-5238
81c050a0:	9d60b568 	lwu	zero,-19096(t3)                                     ; Memory Access: Memory read/write operation
81c050a4:	9b88f120 	lwr	t0,-3808(gp)                                     ; Memory Access: Memory read/write operation
81c050a8:	60055c08 	daddi	a1,zero,23560
81c050ac:	abccf120 	swl	t4,-3808(s8)                                     ; Memory Access: Memory read/write operation
81c050b0:	b7652602 	sdr	a1,9730(k1)
81c050b4:	b065c740 	sdl	a1,-14528(v1)
81c050b8:	f7f9a8a0 	sdc1	$f25,-22368(ra)                                     ; Memory Access: Memory read/write operation
81c050bc:	ed4c6a1f 	swc3	$12,27167(t2)                                     ; Memory Access: Memory read/write operation
81c050c0:	1a03c8a0 	0x1a03c8a0
81c050c4:	6c1203cd 	ldr	s2,973(zero)
81c050c8:	06761a03 	0x6761a03
81c050cc:	6c026500 	ldr	v0,25856(zero)
81c050d0:	12401a03 	b	s2,0x81c0b8e0                                       ; Branch: evaluate condition and jump (error state fallback/looping)
81c050d4:	1a036722 	0x1a036722
81c050d8:	d9400679 	ldc2	$0,1657(t2)                                     ; Memory Access: Memory read/write operation
81c050dc:	1a036c01 	0x1a036c01
81c050e0:	67221240 	daddiu	v0,t9,4672
81c050e4:	122a1a03 	b	s1,t2,0x81c0b8f4                                       ; Branch: evaluate condition and jump (error state fallback/looping)
81c050e8:	b159d940 	sdl	t9,-9920(t2)
81c050ec:	140a1a03 	b	zero,t2,0x81c0b8fc                                       ; Branch: evaluate condition and jump (error state fallback/looping)
81c050f0:	1a036500 	0x1a036500
81c050f4:	6c001240 	ldr	zero,4672(zero)
81c050f8:	6d71a960 	ldr	s1,-22176(t3)
81c050fc:	ed6cedab 	swc3	$12,-4693(t3)                                     ; Memory Access: Memory read/write operation
81c05100:	6c00f001 	ldr	zero,-4095(zero)
81c05104:	ef4c6f70 	swc3	$12,28528(k0)                                     ; Memory Access: Memory read/write operation
81c05108:	ed8d6e10 	swc3	$13,28176(t4)                                     ; Memory Access: Memory read/write operation
81c0510c:	ededebcb 	swc3	$13,-5173(t7)                                     ; Memory Access: Memory read/write operation
81c05110:	f400ed6c 	sdc1	$f0,-4756(zero)                                     ; Memory Access: Memory read/write operation
81c05114:	ed6d4b10 	swc3	$13,19216(t3)                                     ; Memory Access: Memory read/write operation
81c05118:	6a1ff7ff 	ldl	ra,-2049(s0)
81c0511c:	c9a0ed4c 	lwc2	$0,-4788(t5)                                     ; Memory Access: Memory read/write operation
81c05120:	1a036c13 	0x1a036c13
81c05124:	d20503cd 	lld	a1,973(s0)
81c05128:	12821a03 	b	s4,v0,0x81c0b938                                       ; Branch: evaluate condition and jump (error state fallback/looping)
81c0512c:	1a036c01 	0x1a036c01
81c05130:	6c141047 	ldr	s4,4167(zero)
81c05134:	ec4c6c80 	swc3	$12,27776(v0)                                     ; Memory Access: Memory read/write operation
81c05138:	24729305 	addiu	s2,v1,-27899                                     ; Math operation on registers
81c0513c:	f008a8c0 	scd	t0,-22336(zero)
81c05140:	edcd6d00 	swc3	$13,27904(t6)                                     ; Memory Access: Memory read/write operation
81c05144:	ed6c6c12 	swc3	$12,27666(t3)                                     ; Memory Access: Memory read/write operation
81c05148:	03cd1a03 	0x3cd1a03
81c0514c:	6810a920 	ldl	s0,-22240(zero)
81c05150:	f400e80b 	sdc1	$f0,-6133(zero)                                     ; Memory Access: Memory read/write operation
81c05154:	e82c6f00 	swc2	$12,28416(at)                                     ; Memory Access: Memory read/write operation
81c05158:	f7ffe8ed 	sdc1	$f31,-5907(ra)                                     ; Memory Access: Memory read/write operation
81c0515c:	6c136d1f 	ldr	s3,27935(zero)
81c05160:	03cd1a03 	0x3cd1a03
81c05164:	f320ed0c 	scd	zero,-4852(t9)
81c05168:	1a036c13 	0x1a036c13
81c0516c:	650002c4 	daddiu	zero,t0,708
81c05170:	67236b00 	daddiu	v1,t9,27392
81c05174:	1a036c00 	0x1a036c00
81c05178:	d3051337 	lld	a1,4919(t8)
81c0517c:	e1459305 	sc	a1,-27899(t2)
81c05180:	f1e04b01 	scd	zero,19201(t7)
81c05184:	61f67314 	daddi	s6,t7,29460
81c05188:	6b14f1e0 	ldl	s4,-3616(t8)
81c0518c:	2b01e97b 	slti	at,t8,-5765
81c05190:	ec12e8e5 	swc3	$18,-5915(zero)                                     ; Memory Access: Memory read/write operation
81c05194:	5c09f062 	0x5c09f062
81c05198:	612bd404 	daddi	t3,t1,-11260
81c0519c:	690ef400 	ldl	t6,-3072(t0)
81c051a0:	f7ffe90d 	sdc1	$f31,-5875(ra)                                     ; Memory Access: Memory read/write operation
81c051a4:	6c136d1f 	ldr	s3,27935(zero)
81c051a8:	03cd1a03 	0x3cd1a03
81c051ac:	f320ed2c 	scd	zero,-4820(t9)
81c051b0:	1a036c13 	0x1a036c13
81c051b4:	650002c4 	daddiu	zero,t0,708
81c051b8:	67036b00 	daddiu	v1,t8,27392
81c051bc:	1a036c00 	0x1a036c00
81c051c0:	d3051337 	lld	a1,4919(t8)
81c051c4:	e0419305 	sc	at,-27899(v0)
81c051c8:	f1e04b01 	scd	zero,19201(t7)
81c051cc:	61f67314 	daddi	s6,t7,29460
81c051d0:	6e14f1e0 	ldr	s4,-3616(s0)
81c051d4:	2e01e8db 	sltiu	at,s0,-5925
81c051d8:	9204e8e5 	lbu	a0,-5915(s0)                                     ; Memory Access: Memory read/write operation
81c051dc:	4d7fed12 	0x4d7fed12
81c051e0:	ed434d49 	swc3	$3,19785(t2)                                     ; Memory Access: Memory read/write operation
81c051e4:	f0046006 	scd	a0,24582(zero)
81c051e8:	1a036c00 	0x1a036c00
81c051ec:	681002c4 	ldl	s0,708(zero)
81c051f0:	b61717af 	sdr	s7,6063(s0)
81c051f4:	1a03aea0 	0x1a03aea0
81c051f8:	6c1303cd 	ldr	s3,973(zero)
81c051fc:	aaa0b213 	swl	zero,-19949(s5)                                     ; Memory Access: Memory read/write operation
81c05200:	03cd1a03 	0x3cd1a03
81c05204:	b0136c12 	sdl	s3,27666(zero)
81c05208:	b50a6b02 	sdr	t2,27394(t0)
81c0520c:	c0806c01 	ll	zero,27649(a0)
81c05210:	1a03dd60 	0x1a03dd60
81c05214:	6c301034 	ldr	s0,4148(at)
81c05218:	6f00b10f 	ldr	zero,-20209(t8)
81c0521c:	1003c1e0 	b	zero,v1,0x81bf59a0                                       ; Branch: evaluate condition and jump (error state fallback/looping)
81c05220:	b1046f01 	sdl	a0,28417(t0)
81c05224:	9709d9e0 	lhu	t1,-9760(t8)                                     ; Memory Access: Memory read/write operation
81c05228:	90079108 	lbu	a3,-28408(zero)                                     ; Memory Access: Memory read/write operation
81c0522c:	6305ef00 	daddi	a1,t8,-4352
81c05230:	81c059c8 	lb	zero,22984(t6)                                     ; Memory Access: Memory read/write operation
81c05234:	81c05d3c 	lb	zero,23868(t6)                                     ; Memory Access: Memory read/write operation
81c05238:	81c05d1b 	lb	zero,23835(t6)                                     ; Memory Access: Memory read/write operation
81c0523c:	81c05d14 	lb	zero,23828(t6)                                     ; Memory Access: Memory read/write operation
81c05240:	81c05ac0 	lb	zero,23232(t6)                                     ; Memory Access: Memory read/write operation
81c05244:	81c05cf0 	lb	zero,23792(t6)                                     ; Memory Access: Memory read/write operation
81c05248:	81c059ee 	lb	zero,23022(t6)                                     ; Memory Access: Memory read/write operation
81c0524c:	81c059f2 	lb	zero,23026(t6)                                     ; Memory Access: Memory read/write operation
81c05250:	81c05cf8 	lb	zero,23800(t6)                                     ; Memory Access: Memory read/write operation
81c05254:	81c0599b 	lb	zero,22939(t6)                                     ; Memory Access: Memory read/write operation
81c05258:	b50563fd 	sdr	a1,25597(t0)
81c0525c:	6205b605 	daddi	a1,s0,-18939
81c05260:	07531a03 	b	k0,0x81c0ba70                                       ; Branch: evaluate condition and jump (error state fallback/looping)
81c05264:	97056c09 	lhu	a1,27657(t8)                                     ; Memory Access: Memory read/write operation
81c05268:	6303ef00 	daddi	v1,t8,-4352
81c0526c:	81c05a00 	lb	zero,23040(t6)                                     ; Memory Access: Memory read/write operation
81c05270:	81c05d3c 	lb	zero,23868(t6)                                     ; Memory Access: Memory read/write operation
81c05274:	9dc0b507 	lwu	zero,-19193(t6)                                     ; Memory Access: Memory read/write operation
81c05278:	76ffb207 	j	0x8bfec81d                                       ; Jump or subroutine call
81c0527c:	60039a65 	daddi	v1,zero,-26011
81c05280:	e820da65 	swc2	$0,-9627(at)                                     ; Memory Access: Memory read/write operation
81c05284:	dd806a00 	ld	zero,27136(t4)
81c05288:	e820da65 	swc2	$0,-9627(at)                                     ; Memory Access: Memory read/write operation
81c0528c:	65006a01 	daddiu	zero,t0,27137
81c05290:	81c05580 	lb	zero,21888(t6)                                     ; Memory Access: Memory read/write operation
81c05294:	a1a01000 	sb	zero,4096(t5)                                     ; Memory Access: Memory read/write operation
81c05298:	9da0b509 	lwu	zero,-19191(t5)                                     ; Memory Access: Memory read/write operation
81c0529c:	75ffb309 	j	0x87fecc25                                       ; Jump or subroutine call
81c052a0:	60059b45 	daddi	a1,zero,-25787
81c052a4:	2503ed8e 	addiu	v1,t0,-4722                                     ; Math operation on registers
81c052a8:	e820db45 	swc2	$0,-9403(at)                                     ; Memory Access: Memory read/write operation
81c052ac:	b3056a00 	sdl	a1,27136(t8)
81c052b0:	b6036cff 	sdr	v1,27903(s0)
81c052b4:	db45de80 	ldc2	$5,-8576(k0)                                     ; Memory Access: Memory read/write operation
81c052b8:	6a01e820 	ldl	at,-6112(s0)
81c052bc:	81c05580 	lb	zero,21888(t6)                                     ; Memory Access: Memory read/write operation
81c052c0:	a1a01000 	sb	zero,4096(t5)                                     ; Memory Access: Memory read/write operation
81c052c4:	9b41b30d 	lwr	at,-19699(k0)                                     ; Memory Access: Memory read/write operation
81c052c8:	46af3644 	c1	0xaf3644
81c052cc:	efdbe59d 	swc3	$27,-6755(s8)                                     ; Memory Access: Memory read/write operation
81c052d0:	e8e52e01 	swc2	$5,11777(a3)                                     ; Memory Access: Memory read/write operation
81c052d4:	6d1ff3e0 	ldr	ra,-3104(t0)
81c052d8:	ec6beb12 	swc3	$11,-5358(v1)                                     ; Memory Access: Memory read/write operation
81c052dc:	f7c0ec6d 	sdc1	$f0,-5011(s8)                                     ; Memory Access: Memory read/write operation
81c052e0:	e35f3282 	sc	ra,12930(k0)
81c052e4:	efacb306 	swc3	$12,-19706(sp)                                     ; Memory Access: Memory read/write operation
81c052e8:	b5069b83 	sdr	a2,-25725(t0)
81c052ec:	32c036e0 	andi	zero,s6,0x36e0                                     ; Bitwise isolation/masking operation
81c052f0:	ea8decac 	swc2	$13,-4948(s4)                                     ; Memory Access: Memory read/write operation
81c052f4:	db43e820 	ldc2	$3,-6112(k0)                                     ; Memory Access: Memory read/write operation
81c052f8:	81c05580 	lb	zero,21888(t6)                                     ; Memory Access: Memory read/write operation
81c052fc:	a1a13000 	sb	at,12288(t5)                                     ; Memory Access: Memory read/write operation
81c05300:	ec00ffff 	swc3	$0,-1(zero)                                     ; Memory Access: Memory read/write operation
81c05304:	620563fd 	daddi	a1,s0,25597
81c05308:	b30bd004 	sdl	t3,-12284(t8)
81c0530c:	67449b60 	daddiu	a0,k0,-25760
81c05310:	b50a6785 	sdr	t2,26501(t0)
81c05314:	9d0573ff 	lwu	a1,29695(t0)                                     ; Memory Access: Memory read/write operation
81c05318:	eb4e6003 	swc2	$14,24579(k0)                                     ; Memory Access: Memory read/write operation
81c0531c:	2b036a00 	slti	v1,t8,27136
81c05320:	05231b03 	b	t1,0x81c0bf30                                       ; Branch: evaluate condition and jump (error state fallback/looping)
81c05324:	b4056500 	sdr	a1,25856(zero)
81c05328:	9705dc05 	lhu	a1,-9211(t8)                                     ; Memory Access: Memory read/write operation
81c0532c:	ef009004 	swc3	$0,-28668(t8)                                     ; Memory Access: Memory read/write operation
81c05330:	65006303 	daddiu	zero,t0,25347
81c05334:	81c05580 	lb	zero,21888(t6)                                     ; Memory Access: Memory read/write operation
81c05338:	a1a01000 	sb	zero,4096(t5)                                     ; Memory Access: Memory read/write operation
81c0533c:	d00563fc 	lld	a1,25596(zero)
81c05340:	d1066207 	lld	a2,25095(t0)
81c05344:	2c046704 	sltiu	a0,zero,26372
81c05348:	044d1b03 	0x44d1b03
81c0534c:	67026500 	daddiu	v0,t8,25856
81c05350:	04701b03 	b	v1,0x81c0bf60                                       ; Branch: evaluate condition and jump (error state fallback/looping)
81c05354:	b40f6790 	sdr	t7,26512(zero)
81c05358:	dcc06eff 	ld	zero,28415(a2)
81c0535c:	b00e98a8 	sdl	t6,-26456(zero)
81c05360:	dca19860 	ld	at,-26528(a1)
81c05364:	1a039b20 	0x1a039b20
81c05368:	6c020826 	ldr	v0,2086(zero)
81c0536c:	b60b67a2 	sdr	t3,26530(s0)
81c05370:	09001a03 	j	0x8400680c                                       ; Jump or subroutine call
81c05374:	1a036c02 	0x1a036c02
81c05378:	65000767 	daddiu	zero,t0,1895
81c0537c:	14b11a03 	b	a1,s1,0x81c0bb8c                                       ; Branch: evaluate condition and jump (error state fallback/looping)
81c05380:	98406782 	lwr	zero,26498(v0)                                     ; Memory Access: Memory read/write operation
81c05384:	9707da20 	lhu	a3,-9696(t8)                                     ; Memory Access: Memory read/write operation
81c05388:	90059106 	lbu	a1,-28410(zero)                                     ; Memory Access: Memory read/write operation
81c0538c:	6304ef00 	daddi	a0,t8,-4352
81c05390:	81c05580 	lb	zero,21888(t6)                                     ; Memory Access: Memory read/write operation
81c05394:	81c05574 	lb	zero,21876(t6)                                     ; Memory Access: Memory read/write operation
81c05398:	81c052c5 	lb	zero,21189(t6)                                     ; Memory Access: Memory read/write operation
81c0539c:	620963fb 	daddi	t1,s0,25595
81c053a0:	d108d404 	lld	t0,-11260(t0)
81c053a4:	074a1a03 	tlti	k0,6659
81c053a8:	1b03d007 	0x1b03d007
81c053ac:	6500074e 	daddiu	zero,t0,1870
81c053b0:	06851a03 	0x6851a03
81c053b4:	1a036500 	0x1a036500
81c053b8:	65001555 	daddiu	zero,t0,5461
81c053bc:	b037b636 	sdl	s7,-18890(at)
81c053c0:	d8c0b437 	ldc2	$0,-19401(a2)                                     ; Memory Access: Memory read/write operation
81c053c4:	987cf080 	lwr	gp,-3968(v1)                                     ; Memory Access: Memory read/write operation
81c053c8:	b137b236 	sdl	s7,-19914(t1)
81c053cc:	f080eb8d 	scd	zero,-5235(a0)
81c053d0:	d845d87c 	ldc2	$5,-10116(v0)                                     ; Memory Access: Memory read/write operation
81c053d4:	b135d82b 	sdl	s5,-10197(t1)
81c053d8:	6f006d60 	ldr	zero,28000(t8)
81c053dc:	d8aad8ee 	ldc2	$10,-10002(a1)                                     ; Memory Access: Memory read/write operation
81c053e0:	d820d8a8 	ldc2	$0,-10072(at)                                     ; Memory Access: Memory read/write operation
81c053e4:	1a039404 	0x1a039404
81c053e8:	d6040961 	ldc1	$f4,2401(s0)                                     ; Memory Access: Memory read/write operation
81c053ec:	06691a03 	tgeiu	s3,6659
81c053f0:	1a036500 	0x1a036500
81c053f4:	6500066a 	daddiu	zero,t0,1642
81c053f8:	dc40b42d 	ld	zero,-19411(v0)
81c053fc:	1a03b42d 	0x1a03b42d
81c05400:	650007a6 	daddiu	zero,t0,1958
81c05404:	06871a03 	0x6871a03
81c05408:	1a036500 	0x1a036500
81c0540c:	6c0014cf 	ldr	zero,5327(zero)
81c05410:	15481a03 	b	t2,t0,0x81c0bc20                                       ; Branch: evaluate condition and jump (error state fallback/looping)
81c05414:	1a036500 	0x1a036500
81c05418:	6500069c 	daddiu	zero,t0,1692
81c0541c:	11231a03 	b	t1,v1,0x81c0bc2c                                       ; Branch: evaluate condition and jump (error state fallback/looping)
81c05420:	1a036782 	0x1a036782
81c05424:	6c0103dc 	ldr	at,988(zero)
81c05428:	1a03b423 	0x1a03b423
81c0542c:	65000856 	daddiu	zero,t0,2134
81c05430:	f0109304 	scd	s0,-27900(zero)
81c05434:	d8606a00 	ldc2	$0,27136(v1)                                     ; Memory Access: Memory read/write operation
81c05438:	1a03d850 	0x1a03d850
81c0543c:	d8200931 	ldc2	$0,2353(at)                                     ; Memory Access: Memory read/write operation
81c05440:	b61e6c01 	sdr	s8,27649(s0)
81c05444:	1a03b71e 	0x1a03b71e
81c05448:	6d02067d 	ldr	v0,1661(t0)
81c0544c:	b61d6c02 	sdr	sp,27650(s0)
81c05450:	1a03b71d 	0x1a03b71d
81c05454:	67a4067d 	daddiu	a0,sp,1661
81c05458:	6d02b71c 	ldr	v0,-18660(t0)
81c0545c:	1a03b61c 	0x1a03b61c
81c05460:	6c03067d 	ldr	v1,1661(zero)
81c05464:	067e1a03 	0x67e1a03
81c05468:	1a036c01 	0x1a036c01
81c0546c:	6c02067e 	ldr	v0,1662(zero)
81c05470:	067e1a03 	0x67e1a03
81c05474:	1a036c03 	0x1a036c03
81c05478:	6500068a 	daddiu	zero,t0,1674
81c0547c:	06921a03 	b	s4,0x81c0bc8c                                       ; Branch: evaluate condition and jump (error state fallback/looping)
81c05480:	1a036500 	0x1a036500
81c05484:	6500069f 	daddiu	zero,t0,1695
81c05488:	91089709 	lbu	t0,-26871(t0)                                     ; Memory Access: Memory read/write operation
81c0548c:	ef009007 	swc3	$0,-28665(t8)                                     ; Memory Access: Memory read/write operation
81c05490:	65006305 	daddiu	zero,t0,25349
81c05494:	00a50001 	0xa50001
81c05498:	a1a00000 	sb	zero,0(t5)                                     ; Hardware Register Access: operation targeting REG_SYS_CTRL_REG_DBG at 0xA1A00000
81c0549c:	00010001 	0x10001
81c054a0:	00420000 	0x420000
81c054a4:	00200860 	0x200860
81c054a8:	00a50000 	0xa50000
81c054ac:	81c05da0 	lb	zero,23968(t6)                                     ; Memory Access: Memory read/write operation
81c054b0:	018cba80 	0x18cba80
81c054b4:	04a62f80 	0x4a62f80
81c054b8:	81c0f17c 	lb	zero,-3716(t6)                                     ; Memory Access: Memory read/write operation
81c054bc:	81c0f1fc 	lb	zero,-3588(t6)                                     ; Memory Access: Memory read/write operation
81c054c0:	82000000 	lb	zero,0(s0)                                     ; Memory Access: Memory read/write operation
81c054c4:	82000000 	lb	zero,0(s0)                                     ; Memory Access: Memory read/write operation
81c054c8:	81c05570 	lb	zero,21872(t6)                                     ; Memory Access: Memory read/write operation
81c054cc:	81c00280 	lb	zero,640(t6)                                     ; Memory Access: Memory read/write operation
81c054d0:	d00463fd 	lld	a0,25597(zero)
81c054d4:	681ff7ff 	ldl	ra,-2049(zero)
81c054d8:	f1e0e8ac 	scd	zero,-5972(t7)
81c054dc:	ed8c6d1f 	swc3	$12,27935(t4)                                     ; Memory Access: Memory read/write operation
81c054e0:	326033a0 	andi	zero,s3,0x33a0                                     ; Bitwise isolation/masking operation
81c054e4:	e84d6205 	swc2	$13,25093(v0)                                     ; Memory Access: Memory read/write operation
81c054e8:	03fd1a03 	0x3fd1a03
81c054ec:	22fc6c01 	addi	gp,s7,27649                                     ; Math operation on registers
81c054f0:	67b06c01 	daddiu	s0,sp,27649
81c054f4:	04011a03 	b	0x81c0bd04                                       ; Branch: evaluate condition and jump (error state fallback/looping)
81c054f8:	22f66e00 	addi	s6,s7,28160                                     ; Math operation on registers
81c054fc:	03f91a03 	0x3f91a03
81c05500:	22fc6c01 	addi	gp,s7,27649                                     ; Math operation on registers
81c05504:	90049705 	lbu	a0,-26875(zero)                                     ; Memory Access: Memory read/write operation
81c05508:	6303ef00 	daddi	v1,t8,-4352
81c0550c:	620563fd 	daddi	a1,s0,25597
81c05510:	15341a03 	b	t1,s4,0x81c0bd20                                       ; Branch: evaluate condition and jump (error state fallback/looping)
81c05514:	97056500 	lhu	a1,25856(t8)                                     ; Memory Access: Memory read/write operation
81c05518:	ef006a01 	swc3	$0,27137(t8)                                     ; Memory Access: Memory read/write operation
81c0551c:	65006303 	daddiu	zero,t0,25347
81c05520:	d00463fd 	lld	a0,25597(zero)
81c05524:	a040b00b 	sb	zero,-20469(v0)                                     ; Memory Access: Memory read/write operation
81c05528:	2a0d6205 	slti	t5,s0,25093
81c0552c:	1a036d00 	0x1a036d00
81c05530:	6c0f1543 	ldr	t7,5443(zero)
81c05534:	02c41a03 	0x2c41a03
81c05538:	6c0f6c01 	ldr	t7,27649(zero)
81c0553c:	15431a03 	b	t2,v1,0x81c0bd4c                                       ; Branch: evaluate condition and jump (error state fallback/looping)
81c05540:	6b016d03 	ldl	at,27907(t8)
81c05544:	9705c060 	lhu	a1,-16288(t8)                                     ; Memory Access: Memory read/write operation
81c05548:	ef009004 	swc3	$0,-28668(t8)                                     ; Memory Access: Memory read/write operation
81c0554c:	65006303 	daddiu	zero,t0,25347
81c05550:	81c05da4 	lb	zero,23972(t6)                                     ; Memory Access: Memory read/write operation
81c05554:	b306b205 	sdl	a2,-19963(t8)
81c05558:	da806c14 	ldc2	$0,27668(s4)                                     ; Memory Access: Memory read/write operation
81c0555c:	ea6a4a04 	swc2	$10,18948(s3)                                     ; Memory Access: Memory read/write operation
81c05560:	e82061fb 	swc2	$0,25083(at)                                     ; Memory Access: Memory read/write operation
81c05564:	65006500 	daddiu	zero,t0,25856
81c05568:	81c05da8 	lb	zero,23976(t6)                                     ; Memory Access: Memory read/write operation
81c0556c:	81c05dc4 	lb	zero,24004(t6)                                     ; Memory Access: Memory read/write operation
81c05570:	00000000 	nop                                     ; Execution delay slot placeholder / No Operation
81c05574:	a1a01014 	sb	zero,4116(t5)                                     ; Memory Access: Memory read/write operation
81c05578:	02e48899 	0x2e48899
81c0557c:	00244000 	0x244000
81c05580:	000000ff 	dsra32	zero,zero,0x3
81c05584:	00c65d40 	0xc65d40
81c05588:	73616c46 	0x73616c46
81c0558c:	72502068 	0x72502068
81c05590:	6172676f 	daddi	s2,t3,26479
81c05594:	72656d6d 	0x72656d6d
81c05598:	72655620 	0x72655620
81c0559c:	6e6f6973 	ldr	t7,26995(s3)
81c055a0:	00003120 	0x3120
81c055a4:	a2000000 	sb	zero,0(s0)                                     ; Memory Access: Memory read/write operation
81c055a8:	a2007ffc 	sb	zero,32764(s0)                                     ; Memory Access: Memory read/write operation
81c055ac:	a2008000 	sb	zero,-32768(s0)                                     ; Memory Access: Memory read/write operation
81c055b0:	a200fffc 	sb	zero,-4(s0)                                     ; Memory Access: Memory read/write operation
81c055b4:	a2010000 	sb	at,0(s0)                                     ; Memory Access: Memory read/write operation
81c055b8:	a2017ffc 	sb	at,32764(s0)                                     ; Memory Access: Memory read/write operation
81c055bc:	a5a5a5a5 	sh	a1,-23131(t5)                                     ; Memory Access: Memory read/write operation
81c055c0:	5a5a5a5a 	0x5a5a5a5a
81c055c4:	4f35b7da 	c3	0x135b7da
81c055c8:	8e354c91 	lw	s5,19601(s1)                                     ; Memory Access: Memory read/write operation
81c055cc:	00000001 	0x1
81c055d0:	018cba80 	0x18cba80
81c055d4:	001f1f00 	sll	v1,ra,0x1c
81c055d8:	00000001 	0x1
81c055dc:	00000001 	0x1
	...
81c055ec:	00000001 	0x1
	...
81c055fc:	00003100 	sll	a2,zero,0x4
81c05600:	00000003 	sra	zero,zero,0x0
81c05604:	00000001 	0x1
81c05608:	00000000 	nop                                     ; Execution delay slot placeholder / No Operation
81c0560c:	00000100 	sll	zero,zero,0x4
81c05610:	00000101 	0x101
81c05614:	00010000 	sll	zero,at,0x0
81c05618:	00010000 	sll	zero,at,0x0
81c0561c:	00000100 	sll	zero,zero,0x4
81c05620:	00010000 	sll	zero,at,0x0
81c05624:	00010000 	sll	zero,at,0x0
81c05628:	00000000 	nop                                     ; Execution delay slot placeholder / No Operation
81c0562c:	00000009 	j	zero,zero                                       ; Jump or subroutine call
81c05630:	00030007 	srav	zero,v1,zero
81c05634:	fcfdf7f6 	sd	sp,-2058(a3)
81c05638:	00000009 	j	zero,zero                                       ; Jump or subroutine call
81c0563c:	000003ff 	dsra32	zero,zero,0xf
81c05640:	00000800 	sll	at,zero,0x0
81c05644:	0001fe00 	sll	ra,at,0x18
81c05648:	00050008 	0x50008
81c0564c:	00000101 	0x101
81c05650:	00050300 	sll	zero,a1,0xc
81c05654:	00000001 	0x1
81c05658:	00050400 	sll	zero,a1,0x10
81c0565c:	00000001 	0x1
81c05660:	00010000 	sll	zero,at,0x0
81c05664:	00000001 	0x1
81c05668:	00010000 	sll	zero,at,0x0
81c0566c:	00000001 	0x1
81c05670:	00010000 	sll	zero,at,0x0
81c05674:	00000001 	0x1
81c05678:	00050010 	0x50010
81c0567c:	00000001 	0x1
81c05680:	00050040 	sll	zero,a1,0x1
81c05684:	00000001 	0x1
81c05688:	00050400 	sll	zero,a1,0x10
81c0568c:	00000001 	0x1
81c05690:	00050008 	0x50008
81c05694:	00000101 	0x101
81c05698:	00010000 	sll	zero,at,0x0
81c0569c:	00000001 	0x1
81c056a0:	00030000 	sll	zero,v1,0x0
81c056a4:	00000001 	0x1
81c056a8:	00050080 	sll	zero,a1,0x2
81c056ac:	00000001 	0x1
81c056b0:	00050080 	sll	zero,a1,0x2
81c056b4:	00000001 	0x1
81c056b8:	00000000 	nop                                     ; Execution delay slot placeholder / No Operation
81c056bc:	00010000 	sll	zero,at,0x0
81c056c0:	00000000 	nop                                     ; Execution delay slot placeholder / No Operation
81c056c4:	00000005 	0x5
81c056c8:	00010000 	sll	zero,at,0x0
81c056cc:	00000000 	nop                                     ; Execution delay slot placeholder / No Operation
81c056d0:	00000006 	srlv	zero,zero,zero
81c056d4:	00010000 	sll	zero,at,0x0
	...
81c056e0:	00010000 	sll	zero,at,0x0
	...
81c056ec:	00010000 	sll	zero,at,0x0
	...
81c056f8:	00010000 	sll	zero,at,0x0
	...
81c05704:	00010000 	sll	zero,at,0x0
81c05708:	00000000 	nop                                     ; Execution delay slot placeholder / No Operation
81c0570c:	00000004 	sllv	zero,zero,zero
81c05710:	00020002 	srl	zero,v0,0x0
81c05714:	00000000 	nop                                     ; Execution delay slot placeholder / No Operation
81c05718:	00000004 	sllv	zero,zero,zero
81c0571c:	00050020 	add	zero,zero,a1                                     ; Math operation on registers
	...
81c05728:	00010000 	sll	zero,at,0x0
81c0572c:	00000000 	nop                                     ; Execution delay slot placeholder / No Operation
81c05730:	10101000 	b	zero,s0,0x81c09734                                       ; Branch: evaluate condition and jump (error state fallback/looping)
81c05734:	40201810 	0x40201810
81c05738:	08080800 	j	0x80202000                                       ; Jump or subroutine call
81c0573c:	08080808 	j	0x80202020                                       ; Jump or subroutine call
81c05740:	00000000 	nop                                     ; Execution delay slot placeholder / No Operation
81c05744:	e0e0e000 	sc	zero,-8192(a3)
	...
81c05750:	01010100 	0x1010100
81c05754:	00000000 	nop                                     ; Execution delay slot placeholder / No Operation
81c05758:	00000007 	srav	zero,zero,zero
81c0575c:	0c801068 	j	0x820041a0                                       ; Jump or subroutine call
81c05760:	0e100000 	j	0x88400000                                       ; Jump or subroutine call
81c05764:	001e0004 	sllv	zero,s8,zero
81c05768:	0d480d48 	j	0x85203520                                       ; Jump or subroutine call
81c0576c:	00000007 	srav	zero,zero,zero
81c05770:	00000006 	srlv	zero,zero,zero
81c05774:	0e101b58 	j	0x88406d60                                       ; Jump or subroutine call
81c05778:	00000001 	0x1
81c0577c:	00020003 	sra	zero,v0,0x0
81c05780:	00000001 	0x1
81c05784:	a8000000 	swl	zero,0(zero)                                     ; Memory Access: Memory read/write operation
81c05788:	a2000000 	sb	zero,0(s0)                                     ; Memory Access: Memory read/write operation
81c0578c:	a1800000 	sb	zero,0(t4)                                     ; Memory Access: Memory read/write operation
81c05790:	a1880000 	sb	t0,0(t4)                                     ; Memory Access: Memory read/write operation
81c05794:	a1000000 	sb	zero,0(t0)                                     ; Memory Access: Memory read/write operation
81c05798:	204b3233 	addi	t3,v0,12851                                     ; Math operation on registers
81c0579c:	636f6c63 	daddi	t7,k1,27747
81c057a0:	7369206b 	0x7369206b
81c057a4:	746f6e20 	j	0x81bdb881                                       ; Jump or subroutine call
81c057a8:	6e6f6320 	ldr	t7,25376(s3)
81c057ac:	75676966 	j	0x859da599                                       ; Jump or subroutine call
81c057b0:	00646572 	tlt	v1,a0,0x195
81c057b4:	72706d49 	0x72706d49
81c057b8:	7265706f 	0x7265706f
81c057bc:	65724620 	daddiu	s2,t3,17952
81c057c0:	73202e71 	0x73202e71
81c057c4:	696c6163 	ldl	t4,24931(t3)
81c057c8:	6620676e 	daddiu	zero,s1,26478
81c057cc:	75716572 	j	0x85c595c9                                       ; Jump or subroutine call
81c057d0:	79636e65 	0x79636e65
81c057d4:	6425203a 	daddiu	a1,at,8250
81c057d8:	00000000 	nop                                     ; Execution delay slot placeholder / No Operation
81c057dc:	72706d49 	0x72706d49
81c057e0:	7265706f 	0x7265706f
81c057e4:	73797320 	0x73797320
81c057e8:	206d6574 	addi	t5,v1,25972                                     ; Math operation on registers
81c057ec:	71657266 	0x71657266
81c057f0:	636e6575 	daddi	t6,k1,25973
81c057f4:	25203a79 	addiu	zero,t1,14969                                     ; Math operation on registers
81c057f8:	00000064 	0x64
81c057fc:	636f6c43 	daddi	t7,k1,27715
81c05800:	754f206b 	j	0x853c81ad                                       ; Jump or subroutine call
81c05804:	64492074 	daddiu	t1,v0,8308
81c05808:	74756f20 	j	0x81d5bc81                                       ; Jump or subroutine call
81c0580c:	20666f20 	addi	a2,v1,28448                                     ; Math operation on registers
81c05810:	676e6172 	daddiu	t6,k1,24946
81c05814:	25203a65 	addiu	zero,t1,14949                                     ; Math operation on registers
81c05818:	00000064 	0x64
81c0581c:	61766e49 	daddi	s6,t3,28233
81c05820:	2064696c 	addi	a0,v1,26988                                     ; Math operation on registers
81c05824:	636f6c63 	daddi	t7,k1,27747
81c05828:	756f206b 	j	0x85bc81ad                                       ; Jump or subroutine call
81c0582c:	64492074 	daddiu	t1,v0,8308
81c05830:	6f6e2820 	ldr	t6,10272(k1)
81c05834:	706f2074 	0x706f2074
81c05838:	64656e65 	daddiu	a1,v1,28261
81c0583c:	25203a29 	addiu	zero,t1,14889                                     ; Math operation on registers
81c05840:	00000064 	0x64
81c05844:	636f6c43 	daddi	t7,k1,27715
81c05848:	754f206b 	j	0x853c81ad                                       ; Jump or subroutine call
81c0584c:	72462074 	0x72462074
81c05850:	65757165 	daddiu	s5,t3,29029
81c05854:	2079636e 	addi	t9,v1,25454                                     ; Math operation on registers
81c05858:	2074756f 	addi	s4,v1,30063                                     ; Math operation on registers
81c0585c:	7220666f 	0x7220666f
81c05860:	65676e61 	daddiu	a3,t3,28257
81c05864:	6425203a 	daddiu	a1,at,8250
81c05868:	00000000 	nop                                     ; Execution delay slot placeholder / No Operation
81c0586c:	03197500 	0x3197500
81c05870:	0632ea00 	b	s1,0x81c00074                                       ; Branch: evaluate condition and jump (error state fallback/looping)
81c05874:	094c5f00 	j	0x85317c00                                       ; Jump or subroutine call
81c05878:	0c65d400 	j	0x81975000                                       ; Jump or subroutine call
81c0587c:	0ee09800 	j	0x8b826000                                       ; Jump or subroutine call
81c05880:	1298be00 	b	s4,t8,0x81bf5084                                       ; Branch: evaluate condition and jump (error state fallback/looping)
81c05884:	018cba80 	0x18cba80
81c05888:	025317c0 	0x25317c0
81c0588c:	03197500 	0x3197500
81c05890:	04a62f80 	0x4a62f80
81c05894:	05503649 	b	t2,0x81c131bc                                       ; Branch: evaluate condition and jump (error state fallback/looping)
81c05898:	0632ea00 	b	s1,0x81c0009c                                       ; Branch: evaluate condition and jump (error state fallback/looping)
81c0589c:	06c32dd1 	b	s6,0x81c10fe4                                       ; Branch: evaluate condition and jump (error state fallback/looping)
81c058a0:	07704c00 	b	k1,0x81c188a4                                       ; Branch: evaluate condition and jump (error state fallback/looping)
81c058a4:	0843e2ab 	j	0x810f8aac                                       ; Jump or subroutine call
81c058a8:	094c5f00 	j	0x85317c00                                       ; Jump or subroutine call
81c058ac:	0aa06c92 	j	0x8a81b248                                       ; Jump or subroutine call
81c058b0:	0c65d400 	j	0x81975000                                       ; Jump or subroutine call
81c058b4:	0ee09800 	j	0x8b826000                                       ; Jump or subroutine call
81c058b8:	1298be00 	b	s4,t8,0x81bf50bc                                       ; Branch: evaluate condition and jump (error state fallback/looping)
81c058bc:	00000000 	nop                                     ; Execution delay slot placeholder / No Operation
81c058c0:	0000003f 	dsra32	zero,zero,0x0
81c058c4:	00010000 	sll	zero,at,0x0
81c058c8:	00000010 	mfhi	zero
81c058cc:	00001000 	sll	v0,zero,0x0
	...
81c058d8:	00000001 	0x1
81c058dc:	81c058bc 	lb	zero,22716(t6)                                     ; Memory Access: Memory read/write operation
81c058e0:	00400000 	0x400000
81c058e4:	00383000 	0x383000
81c058e8:	00079000 	sll	s2,a3,0x0
81c058ec:	00000200 	sll	zero,zero,0x8
81c058f0:	77656956 	j	0x8d95a559                                       ; Jump or subroutine call
81c058f4:	42444720 	c0	0x444720
81c058f8:	00000000 	nop                                     ; Execution delay slot placeholder / No Operation
81c058fc:	20444d50 	addi	a0,v0,19792                                     ; Math operation on registers
81c05900:	20726f66 	addi	s2,v1,28518                                     ; Math operation on registers
81c05904:	5f756d70 	0x5f756d70
81c05908:	39303838 	xori	s0,t1,0x3838                                     ; Bitwise isolation/masking operation
81c0590c:	61724220 	daddi	s2,t3,16928
81c05910:	3a68636e 	xori	t0,s3,0x636e                                     ; Bitwise isolation/masking operation
81c05914:	726f5720 	0x726f5720
81c05918:	6170736b 	daddi	s0,t3,29547
81c0591c:	2f736563 	sltiu	s3,k1,25955
81c05920:	746e6961 	j	0x81b9a585                                       ; Jump or subroutine call
81c05924:	3576622f 	ori	s6,t3,0x622f                                      ; Bitwise isolation/masking operation
81c05928:	7665645f 	j	0x8995917d                                       ; Jump or subroutine call
81c0592c:	616c702f 	daddi	t4,t3,28719
81c05930:	726f6674 	0x726f6674
81c05934:	64652f6d 	daddiu	a1,v1,12141
81c05938:	702f7672 	0x702f7672
81c0593c:	0000646d 	0x646d
81c05940:	00000000 	nop                                     ; Execution delay slot placeholder / No Operation
81c05944:	20080121 	addi	t0,zero,289                                     ; Math operation on registers
81c05948:	00000000 	nop                                     ; Execution delay slot placeholder / No Operation
81c0594c:	81c05588 	lb	zero,21896(t6)                                     ; Memory Access: Memory read/write operation
81c05950:	fb04fa01 	sdc2	$4,-1535(t8)                                     ; Memory Access: Memory read/write operation
	...
81c0597c:	a2000000 	sb	zero,0(s0)                                     ; Memory Access: Memory read/write operation
81c05980:	a2008000 	sb	zero,-32768(s0)                                     ; Memory Access: Memory read/write operation
81c05984:	a2010000 	sb	at,0(s0)                                     ; Memory Access: Memory read/write operation
81c05988:	00008000 	sll	s0,zero,0x0
81c0598c:	018cba80 	0x18cba80
81c05990:	00000100 	sll	zero,zero,0x4
81c05994:	3530b0a3 	ori	s0,t1,0xb0a3                                      ; Bitwise isolation/masking operation
81c05998:	019966f5 	0x19966f5
81c0599c:	00010000 	sll	zero,at,0x0
81c059a0:	00000ef0 	tge	zero,zero,0x3b
81c059a4:	5000c000 	b	zero,0x81bf59a8                                       ; Branch: evaluate condition and jump (error state fallback/looping)
81c059a8:	4f20fea0 	c3	0x120fea0
81c059ac:	888efe00 	lwl	t6,-512(a0)                                     ; Memory Access: Memory read/write operation
81c059b0:	00000001 	0x1
81c059b4:	0000f8a4 	0xf8a4
81c059b8:	00000249 	0x249
81c059bc:	874e8714 	lh	t6,-30956(k0)                                     ; Memory Access: Memory read/write operation
81c059c0:	e7eca7e9 	swc1	$f12,-22551(ra)                                     ; Memory Access: Memory read/write operation
81c059c4:	00004924 	0x4924
81c059c8:	00000000 	nop                                     ; Execution delay slot placeholder / No Operation
81c059cc:	00000002 	srl	zero,zero,0x0
81c059d0:	00000000 	nop                                     ; Execution delay slot placeholder / No Operation
81c059d4:	0000ffff 	dsra32	ra,zero,0x1f
	...
81c059ec:	027a1028 	0x27a1028
81c059f0:	03781020 	add	v0,k1,t8                                     ; Math operation on registers
81c059f4:	0000ffff 	dsra32	ra,zero,0x1f
81c059f8:	00000006 	srlv	zero,zero,zero
81c059fc:	00000001 	0x1
81c05a00:	000045a7 	0x45a7
81c05a04:	00000000 	nop                                     ; Execution delay slot placeholder / No Operation
81c05a08:	01330675 	0x1330675
81c05a0c:	81c058fc 	lb	zero,22780(t6)                                     ; Memory Access: Memory read/write operation
	...
